###############################################################################
#                                                                             #
# IAR C/C++ Compiler V8.10.3.10338/W32 for 8051         30/Aug/2017  17:38:24 #
# Copyright 2004-2011 IAR Systems AB.                                         #
#                                                                             #
#    Core               =  plain                                              #
#    Code model         =  banked                                             #
#    Data model         =  large                                              #
#    Calling convention =  xdata reentrant                                    #
#    Constant location  =  data_rom                                           #
#    Dptr setup         =  1,16                                               #
#    Source file        =  C:\Users\Administrator\Desktop\Git-Local-Repositor #
#                          ies\vehicle_positioning_system\MainApp\Projects\zs #
#                          tack\Samples\SampleApp\Source\SampleApp.c          #
#    Command line       =  -f C:\Users\Administrator\Desktop\Git-Local-Reposi #
#                          tories\vehicle_positioning_system\MainApp\Projects #
#                          \zstack\Samples\SampleApp\CC2530DB\..\..\..\Tools\ #
#                          CC2530DB\f8wCoord.cfg (-DCPU32MHZ                  #
#                          -DROOT=__near_func -DMAC_CFG_APP_PENDING_QUEUE=TRU #
#                          E -DZDO_COORDINATOR -DRTR_NWK) -f                  #
#                          C:\Users\Administrator\Desktop\Git-Local-Repositor #
#                          ies\vehicle_positioning_system\MainApp\Projects\zs #
#                          tack\Samples\SampleApp\CC2530DB\..\..\..\Tools\CC2 #
#                          530DB\f8wConfig.cfg (-DSECURE=0                    #
#                          -DZG_SECURE_DYNAMIC=0 -DREFLECTOR                  #
#                          -DDEFAULT_CHANLIST=0x00000800                      #
#                          -DZDAPP_CONFIG_PAN_ID=0xFFF1                       #
#                          -DNWK_START_DELAY=100 -DEXTENDED_JOINING_RANDOM_MA #
#                          SK=0x007F -DBEACON_REQUEST_DELAY=100               #
#                          -DBEACON_REQ_DELAY_MASK=0x00FF                     #
#                          -DROUTE_EXPIRY_TIME=30 -DAPSC_ACK_WAIT_DURATION_PO #
#                          LLED=3000 -DNWK_INDIRECT_MSG_TIMEOUT=7             #
#                          -DMAX_RREQ_ENTRIES=8 -DAPSC_MAX_FRAME_RETRIES=3    #
#                          -DNWK_MAX_DATA_RETRIES=2                           #
#                          -DMAX_POLL_FAILURE_RETRIES=2 -DMAX_BCAST=9         #
#                          -DAPS_MAX_GROUPS=16 -DMAX_RTG_ENTRIES=40           #
#                          -DNWK_MAX_BINDING_ENTRIES=4                        #
#                          -DMAX_BINDING_CLUSTER_IDS=4 "-DDEFAULT_KEY={0x01,  #
#                          0x03, 0x05, 0x07, 0x09, 0x0B, 0x0D, 0x0F, 0x00,    #
#                          0x02, 0x04, 0x06, 0x08, 0x0A, 0x0C, 0x0D}"         #
#                          -DMAC_MAX_FRAME_SIZE=116 "-DCONST=const __code"    #
#                          -DGENERIC=__generic -DRFD_RCVC_ALWAYS_ON=FALSE     #
#                          -DPOLL_RATE=1000 -DQUEUED_POLL_RATE=100            #
#                          -DRESPONSE_POLL_RATE=100 -DREJOIN_POLL_RATE=440    #
#                          -DHAL_UART=TRUE -DHAL_DMA=TRUE) -DHAL_LCD=FALSE    #
#                          C:\Users\Administrator\Desktop\Git-Local-Repositor #
#                          ies\vehicle_positioning_system\MainApp\Projects\zs #
#                          tack\Samples\SampleApp\Source\SampleApp.c -D       #
#                          ZIGBEEPRO -D xMT_TASK -D xMT_SYS_FUNC -D           #
#                          xMT_ZDO_FUNC -lC C:\Users\Administrator\Desktop\Gi #
#                          t-Local-Repositories\vehicle_positioning_system\Ma #
#                          inApp\Projects\zstack\Samples\SampleApp\CC2530DB\C #
#                          oordinatorEB-Pro\List\ -lA                         #
#                          C:\Users\Administrator\Desktop\Git-Local-Repositor #
#                          ies\vehicle_positioning_system\MainApp\Projects\zs #
#                          tack\Samples\SampleApp\CC2530DB\CoordinatorEB-Pro\ #
#                          List\ --diag_suppress Pe001,Pa010 -o               #
#                          C:\Users\Administrator\Desktop\Git-Local-Repositor #
#                          ies\vehicle_positioning_system\MainApp\Projects\zs #
#                          tack\Samples\SampleApp\CC2530DB\CoordinatorEB-Pro\ #
#                          Obj\ -e --debug --core=plain --dptr=16,1           #
#                          --data_model=large --code_model=banked             #
#                          --calling_convention=xdata_reentrant               #
#                          --place_constants=data_rom --nr_virtual_regs 16    #
#                          -I C:\Users\Administrator\Desktop\Git-Local-Reposi #
#                          tories\vehicle_positioning_system\MainApp\Projects #
#                          \zstack\Samples\SampleApp\CC2530DB\ -I             #
#                          C:\Users\Administrator\Desktop\Git-Local-Repositor #
#                          ies\vehicle_positioning_system\MainApp\Projects\zs #
#                          tack\Samples\SampleApp\CC2530DB\..\SOURCE\ -I      #
#                          C:\Users\Administrator\Desktop\Git-Local-Repositor #
#                          ies\vehicle_positioning_system\MainApp\Projects\zs #
#                          tack\Samples\SampleApp\CC2530DB\..\..\..\ZMAIN\TI2 #
#                          530DB\ -I C:\Users\Administrator\Desktop\Git-Local #
#                          -Repositories\vehicle_positioning_system\MainApp\P #
#                          rojects\zstack\Samples\SampleApp\CC2530DB\..\..\.. #
#                          \..\..\COMPONENTS\MT\ -I                           #
#                          C:\Users\Administrator\Desktop\Git-Local-Repositor #
#                          ies\vehicle_positioning_system\MainApp\Projects\zs #
#                          tack\Samples\SampleApp\CC2530DB\..\..\..\..\..\COM #
#                          PONENTS\HAL\INCLUDE\ -I C:\Users\Administrator\Des #
#                          ktop\Git-Local-Repositories\vehicle_positioning_sy #
#                          stem\MainApp\Projects\zstack\Samples\SampleApp\CC2 #
#                          530DB\..\..\..\..\..\COMPONENTS\HAL\TARGET\CC2530E #
#                          B\ -I C:\Users\Administrator\Desktop\Git-Local-Rep #
#                          ositories\vehicle_positioning_system\MainApp\Proje #
#                          cts\zstack\Samples\SampleApp\CC2530DB\..\..\..\..\ #
#                          ..\COMPONENTS\OSAL\MCU\CCSOC\ -I                   #
#                          C:\Users\Administrator\Desktop\Git-Local-Repositor #
#                          ies\vehicle_positioning_system\MainApp\Projects\zs #
#                          tack\Samples\SampleApp\CC2530DB\..\..\..\..\..\COM #
#                          PONENTS\OSAL\INCLUDE\ -I                           #
#                          C:\Users\Administrator\Desktop\Git-Local-Repositor #
#                          ies\vehicle_positioning_system\MainApp\Projects\zs #
#                          tack\Samples\SampleApp\CC2530DB\..\..\..\..\..\COM #
#                          PONENTS\STACK\AF\ -I C:\Users\Administrator\Deskto #
#                          p\Git-Local-Repositories\vehicle_positioning_syste #
#                          m\MainApp\Projects\zstack\Samples\SampleApp\CC2530 #
#                          DB\..\..\..\..\..\COMPONENTS\STACK\NWK\ -I         #
#                          C:\Users\Administrator\Desktop\Git-Local-Repositor #
#                          ies\vehicle_positioning_system\MainApp\Projects\zs #
#                          tack\Samples\SampleApp\CC2530DB\..\..\..\..\..\COM #
#                          PONENTS\STACK\SEC\ -I C:\Users\Administrator\Deskt #
#                          op\Git-Local-Repositories\vehicle_positioning_syst #
#                          em\MainApp\Projects\zstack\Samples\SampleApp\CC253 #
#                          0DB\..\..\..\..\..\COMPONENTS\STACK\SAPI\ -I       #
#                          C:\Users\Administrator\Desktop\Git-Local-Repositor #
#                          ies\vehicle_positioning_system\MainApp\Projects\zs #
#                          tack\Samples\SampleApp\CC2530DB\..\..\..\..\..\COM #
#                          PONENTS\STACK\SYS\ -I C:\Users\Administrator\Deskt #
#                          op\Git-Local-Repositories\vehicle_positioning_syst #
#                          em\MainApp\Projects\zstack\Samples\SampleApp\CC253 #
#                          0DB\..\..\..\..\..\COMPONENTS\STACK\ZDO\ -I        #
#                          C:\Users\Administrator\Desktop\Git-Local-Repositor #
#                          ies\vehicle_positioning_system\MainApp\Projects\zs #
#                          tack\Samples\SampleApp\CC2530DB\..\..\..\..\..\COM #
#                          PONENTS\ZMAC\F8W\ -I C:\Users\Administrator\Deskto #
#                          p\Git-Local-Repositories\vehicle_positioning_syste #
#                          m\MainApp\Projects\zstack\Samples\SampleApp\CC2530 #
#                          DB\..\..\..\..\..\COMPONENTS\ZMAC\ -I              #
#                          C:\Users\Administrator\Desktop\Git-Local-Repositor #
#                          ies\vehicle_positioning_system\MainApp\Projects\zs #
#                          tack\Samples\SampleApp\CC2530DB\..\..\..\..\..\COM #
#                          PONENTS\SERVICES\SADDR\ -I                         #
#                          C:\Users\Administrator\Desktop\Git-Local-Repositor #
#                          ies\vehicle_positioning_system\MainApp\Projects\zs #
#                          tack\Samples\SampleApp\CC2530DB\..\..\..\..\..\COM #
#                          PONENTS\SERVICES\SDATA\ -I                         #
#                          C:\Users\Administrator\Desktop\Git-Local-Repositor #
#                          ies\vehicle_positioning_system\MainApp\Projects\zs #
#                          tack\Samples\SampleApp\CC2530DB\..\..\..\..\..\COM #
#                          PONENTS\MAC\INCLUDE\ -I C:\Users\Administrator\Des #
#                          ktop\Git-Local-Repositories\vehicle_positioning_sy #
#                          stem\MainApp\Projects\zstack\Samples\SampleApp\CC2 #
#                          530DB\..\..\..\..\..\COMPONENTS\MAC\HIGH_LEVEL\    #
#                          -I C:\Users\Administrator\Desktop\Git-Local-Reposi #
#                          tories\vehicle_positioning_system\MainApp\Projects #
#                          \zstack\Samples\SampleApp\CC2530DB\..\..\..\..\..\ #
#                          COMPONENTS\MAC\LOW_LEVEL\srf04\ -I                 #
#                          C:\Users\Administrator\Desktop\Git-Local-Repositor #
#                          ies\vehicle_positioning_system\MainApp\Projects\zs #
#                          tack\Samples\SampleApp\CC2530DB\..\..\..\..\..\COM #
#                          PONENTS\MAC\LOW_LEVEL\srf04\SINGLE_CHIP\ -Ohz      #
#                          --require_prototypes                               #
#    List file          =  C:\Users\Administrator\Desktop\Git-Local-Repositor #
#                          ies\vehicle_positioning_system\MainApp\Projects\zs #
#                          tack\Samples\SampleApp\CC2530DB\CoordinatorEB-Pro\ #
#                          List\SampleApp.lst                                 #
#    Object file        =  C:\Users\Administrator\Desktop\Git-Local-Repositor #
#                          ies\vehicle_positioning_system\MainApp\Projects\zs #
#                          tack\Samples\SampleApp\CC2530DB\CoordinatorEB-Pro\ #
#                          Obj\SampleApp.r51                                  #
#                                                                             #
#                                                                             #
###############################################################################

C:\Users\Administrator\Desktop\Git-Local-Repositories\vehicle_positioning_system\MainApp\Projects\zstack\Samples\SampleApp\Source\SampleApp.c
      1          /*********************************************************************
      2           * INCLUDES
      3           */
      4          #include "OSAL.h"
      5          #include "ZGlobals.h"
      6          #include "AF.h"
      7          #include "aps_groups.h"
      8          #include "ZDApp.h"
      9          
     10          #include "OnBoard.h"
     11          
     12          #include "hal_led.h"
     13          
     14          #include "SampleApp.h"
     15          #include "Data_Process.h"

   \                                 In  segment XDATA_Z, align 1, keep-with-next
   \   struct <unnamed> geoBuf
   \                     geoBuf:
   \   000000                DS 10
   \   00000A                REQUIRE __INIT_XDATA_Z

   \                                 In  segment BANKED_CODE, align 1, keep-with-next
   \   __banked_func __xdata_reentrant void initGeoBuf(void)
   \                     initGeoBuf:
   \   000000   C082         PUSH    DPL
   \   000002   C083         PUSH    DPH
   \   000004                ; Saved register size: 2
   \   000004                ; Auto size: 0
   \   000004                ; Setup parameters for call to function osal_mem_alloc
   \   000004   12....       LCALL   ?Subroutine4 & 0xFFFF
   \                     ??CrossCallReturnLabel_0:
   \   000007   90....       MOV     DPTR,#geoBuf
   \   00000A   E4           CLR     A
   \   00000B   F0           MOVX    @DPTR,A
   \   00000C   A3           INC     DPTR
   \   00000D   F0           MOVX    @DPTR,A
   \   00000E   78..         MOV     R0,#`?<Constant "$GPGGA">` & 0xff
   \   000010   79..         MOV     R1,#(`?<Constant "$GPGGA">` >> 8) & 0xff
   \   000012   90....       MOV     DPTR,#geoBuf + 4
   \   000015   E8           MOV     A,R0
   \   000016   F0           MOVX    @DPTR,A
   \   000017   A3           INC     DPTR
   \   000018   E9           MOV     A,R1
   \   000019   F0           MOVX    @DPTR,A
   \   00001A   A3           INC     DPTR
   \   00001B   E8           MOV     A,R0
   \   00001C   F0           MOVX    @DPTR,A
   \   00001D   A3           INC     DPTR
   \   00001E   E9           MOV     A,R1
   \   00001F   F0           MOVX    @DPTR,A
   \   000020                REQUIRE ?Subroutine0
   \   000020                ; // Fall through to label ?Subroutine0

   \                                 In  segment BANKED_CODE, align 1, keep-with-next
   \                     ?Subroutine0:
   \   000000   D083         POP     DPH
   \   000002   D082         POP     DPL
   \   000004   02....       LJMP    ?BRET

   \                                 In  segment BANKED_CODE, align 1, keep-with-next
   \                     ?Subroutine4:
   \   000000   7A52         MOV     R2,#0x52
   \   000002   7B00         MOV     R3,#0x0
   \   000004   12....       LCALL   ??osal_mem_alloc?relay
   \   000007   90....       MOV     DPTR,#geoBuf + 2
   \   00000A   EA           MOV     A,R2
   \   00000B   F0           MOVX    @DPTR,A
   \   00000C   A3           INC     DPTR
   \   00000D   EB           MOV     A,R3
   \   00000E   F0           MOVX    @DPTR,A
   \   00000F                ; Setup parameters for call to function osal_memset
   \   00000F                ; Setup parameters for call to function osal_memset
   \   00000F   7C52         MOV     R4,#0x52
   \   000011   7D00         MOV     R5,#0x0
   \   000013   7900         MOV     R1,#0x0
   \   000015   12....       LCALL   ??osal_memset?relay
   \   000018   22           RET

   \                                 In  segment BANKED_CODE, align 1, keep-with-next
   \   __banked_func __xdata_reentrant void recGPSData(uint8, uint8)
   \                     recGPSData:
   \   000000   74F6         MOV     A,#-0xa
   \   000002   12....       LCALL   ?BANKED_ENTER_XDATA
   \   000005                ; Saved register size: 10
   \   000005                ; Auto size: 1
   \   000005   74FF         MOV     A,#-0x1
   \   000007   12....       LCALL   ?ALLOC_XSTACK8
   \   00000A   E9           MOV     A,R1
   \   00000B   FE           MOV     R6,A
   \   00000C   8025         SJMP    ??recGPSData_0
   \                     ??recGPSData_1:
   \   00000E   90....       MOV     DPTR,#geoBuf + 6
   \   000011   E8           MOV     A,R0
   \   000012   F0           MOVX    @DPTR,A
   \   000013   A3           INC     DPTR
   \   000014   E9           MOV     A,R1
   \                     ??recGPSData_2:
   \   000015   F0           MOVX    @DPTR,A
   \   000016   90....       MOV     DPTR,#geoBuf + 6
   \   000019   E8           MOV     A,R0
   \   00001A   2406         ADD     A,#0x6
   \   00001C   F8           MOV     R0,A
   \   00001D   E9           MOV     A,R1
   \   00001E   3400         ADDC    A,#0x0
   \   000020   F9           MOV     R1,A
   \   000021   E0           MOVX    A,@DPTR
   \   000022   68           XRL     A,R0
   \   000023   7003         JNZ     ??recGPSData_3
   \   000025   A3           INC     DPTR
   \   000026   E0           MOVX    A,@DPTR
   \   000027   69           XRL     A,R1
   \                     ??recGPSData_3:
   \   000028   7009         JNZ     ??recGPSData_0
   \   00002A   90....       MOV     DPTR,#geoBuf + 8
   \   00002D   7401         MOV     A,#0x1
   \   00002F   F0           MOVX    @DPTR,A
   \   000030   A3           INC     DPTR
   \   000031   E4           CLR     A
   \                     ??recGPSData_4:
   \   000032   F0           MOVX    @DPTR,A
   \                     ??recGPSData_0:
   \   000033                ; Setup parameters for call to function Hal_UART_RxBufLen
   \   000033   EE           MOV     A,R6
   \   000034   F9           MOV     R1,A
   \   000035   12....       LCALL   ??Hal_UART_RxBufLen?relay
   \   000038   8B..         MOV     ?V0 + 1,R3
   \   00003A   EA           MOV     A,R2
   \   00003B   45..         ORL     A,?V0 + 1
   \   00003D   7003         JNZ     $+5
   \   00003F   02....       LJMP    ??recGPSData_5 & 0xFFFF
   \   000042                ; Setup parameters for call to function HalUARTRead
   \   000042   7C01         MOV     R4,#0x1
   \   000044   7D00         MOV     R5,#0x0
   \   000046   85..82       MOV     DPL,?XSP + 0
   \   000049   85..83       MOV     DPH,?XSP + 1
   \   00004C   AA82         MOV     R2,DPL
   \   00004E   AB83         MOV     R3,DPH
   \   000050   EE           MOV     A,R6
   \   000051   F9           MOV     R1,A
   \   000052   12....       LCALL   ??HalUARTRead?relay
   \   000055   90....       MOV     DPTR,#geoBuf + 8
   \   000058   12....       LCALL   ?Subroutine12 & 0xFFFF
   \                     ??CrossCallReturnLabel_17:
   \   00005B   E8           MOV     A,R0
   \   00005C   49           ORL     A,R1
   \   00005D   7028         JNZ     ??recGPSData_6
   \   00005F   90....       MOV     DPTR,#geoBuf + 4
   \   000062   12....       LCALL   ?Subroutine12 & 0xFFFF
   \                     ??CrossCallReturnLabel_18:
   \   000065   A3           INC     DPTR
   \   000066   12....       LCALL   ?Subroutine13 & 0xFFFF
   \                     ??CrossCallReturnLabel_21:
   \   000069   85..82       MOV     DPL,?XSP + 0
   \   00006C   85..83       MOV     DPH,?XSP + 1
   \   00006F   E0           MOVX    A,@DPTR
   \   000070   FC           MOV     R4,A
   \   000071   8A82         MOV     DPL,R2
   \   000073   8B83         MOV     DPH,R3
   \   000075   E0           MOVX    A,@DPTR
   \   000076   6C           XRL     A,R4
   \   000077   7095         JNZ     ??recGPSData_1
   \   000079   A3           INC     DPTR
   \   00007A   AA82         MOV     R2,DPL
   \   00007C   AB83         MOV     R3,DPH
   \   00007E   90....       MOV     DPTR,#geoBuf + 6
   \   000081   EA           MOV     A,R2
   \   000082   F0           MOVX    @DPTR,A
   \   000083   A3           INC     DPTR
   \   000084   EB           MOV     A,R3
   \   000085   808E         SJMP    ??recGPSData_2
   \                     ??recGPSData_6:
   \   000087   90....       MOV     DPTR,#geoBuf + 2
   \   00008A   12....       LCALL   ?Subroutine12 & 0xFFFF
   \                     ??CrossCallReturnLabel_19:
   \   00008D   85..82       MOV     DPL,?XSP + 0
   \   000090   85..83       MOV     DPH,?XSP + 1
   \   000093   E0           MOVX    A,@DPTR
   \   000094   6424         XRL     A,#0x24
   \   000096   702C         JNZ     ??recGPSData_7
   \   000098   8882         MOV     DPL,R0
   \   00009A   8983         MOV     DPH,R1
   \   00009C   C3           CLR     C
   \   00009D   E0           MOVX    A,@DPTR
   \   00009E   9440         SUBB    A,#0x40
   \   0000A0   A3           INC     DPTR
   \   0000A1   E0           MOVX    A,@DPTR
   \   0000A2   9400         SUBB    A,#0x0
   \   0000A4   400D         JC      ??recGPSData_8
   \   0000A6   90....       MOV     DPTR,#geoBuf
   \   0000A9   E8           MOV     A,R0
   \   0000AA   F0           MOVX    @DPTR,A
   \   0000AB   A3           INC     DPTR
   \   0000AC   E9           MOV     A,R1
   \   0000AD   F0           MOVX    @DPTR,A
   \   0000AE                ; Setup parameters for call to function osal_mem_alloc
   \   0000AE   12....       LCALL   ?Subroutine4 & 0xFFFF
   \                     ??CrossCallReturnLabel_1:
   \   0000B1   8008         SJMP    ??recGPSData_9
   \                     ??recGPSData_8:
   \   0000B3   8882         MOV     DPL,R0
   \   0000B5   8983         MOV     DPH,R1
   \   0000B7   E4           CLR     A
   \   0000B8   F0           MOVX    @DPTR,A
   \   0000B9   A3           INC     DPTR
   \   0000BA   F0           MOVX    @DPTR,A
   \                     ??recGPSData_9:
   \   0000BB   90....       MOV     DPTR,#geoBuf + 8
   \   0000BE   E4           CLR     A
   \   0000BF   F0           MOVX    @DPTR,A
   \   0000C0   A3           INC     DPTR
   \   0000C1   02....       LJMP    ??recGPSData_4 & 0xFFFF
   \                     ??recGPSData_7:
   \   0000C4   E0           MOVX    A,@DPTR
   \   0000C5   C0E0         PUSH    A
   \   0000C7   8882         MOV     DPL,R0
   \   0000C9   8983         MOV     DPH,R1
   \   0000CB   12....       LCALL   ?Subroutine13 & 0xFFFF
   \                     ??CrossCallReturnLabel_22:
   \   0000CE   E8           MOV     A,R0
   \   0000CF   2A           ADD     A,R2
   \   0000D0   F582         MOV     DPL,A
   \   0000D2   E9           MOV     A,R1
   \   0000D3   3B           ADDC    A,R3
   \   0000D4   F583         MOV     DPH,A
   \   0000D6   A3           INC     DPTR
   \   0000D7   A3           INC     DPTR
   \   0000D8   D0E0         POP     A
   \   0000DA   F0           MOVX    @DPTR,A
   \   0000DB   90....       MOV     DPTR,#geoBuf + 2
   \   0000DE   12....       LCALL   ??Subroutine18_0 & 0xFFFF
   \                     ??CrossCallReturnLabel_31:
   \   0000E1   2401         ADD     A,#0x1
   \   0000E3   F0           MOVX    @DPTR,A
   \   0000E4   A3           INC     DPTR
   \   0000E5   E0           MOVX    A,@DPTR
   \   0000E6   3400         ADDC    A,#0x0
   \   0000E8   02....       LJMP    ??recGPSData_4 & 0xFFFF
   \                     ??recGPSData_5:
   \   0000EB   7401         MOV     A,#0x1
   \   0000ED                REQUIRE ?Subroutine1
   \   0000ED                ; // Fall through to label ?Subroutine1

   \                                 In  segment BANKED_CODE, align 1, keep-with-next
   \                     ?Subroutine1:
   \   000000   12....       LCALL   ?DEALLOC_XSTACK8
   \   000003                REQUIRE ??Subroutine15_0
   \   000003                ; // Fall through to label ??Subroutine15_0

   \                                 In  segment BANKED_CODE, align 1, keep-with-next
   \                     ??Subroutine15_0:
   \   000000   7F02         MOV     R7,#0x2
   \   000002   02....       LJMP    ?BANKED_LEAVE_XDATA

   \                                 In  segment BANKED_CODE, align 1, keep-with-next
   \                     ?Subroutine13:
   \   000000   E0           MOVX    A,@DPTR
   \   000001   FA           MOV     R2,A
   \   000002   A3           INC     DPTR
   \   000003   E0           MOVX    A,@DPTR
   \   000004   FB           MOV     R3,A
   \   000005   22           RET

   \                                 In  segment BANKED_CODE, align 1, keep-with-next
   \                     ?Subroutine12:
   \   000000   E0           MOVX    A,@DPTR
   \   000001   F8           MOV     R0,A
   \   000002   A3           INC     DPTR
   \   000003   E0           MOVX    A,@DPTR
   \   000004   F9           MOV     R1,A
   \   000005   22           RET

   \                                 In  segment BANKED_CODE, align 1, keep-with-next
   \                     ??Subroutine18_0:
   \   000000   E0           MOVX    A,@DPTR
   \   000001   F8           MOV     R0,A
   \   000002   A3           INC     DPTR
   \   000003   E0           MOVX    A,@DPTR
   \   000004   F583         MOV     DPH,A
   \   000006   8882         MOV     DPL,R0
   \   000008   E0           MOVX    A,@DPTR
   \   000009   22           RET

   \                                 In  segment BANKED_CODE, align 1, keep-with-next
   \   __banked_func __xdata_reentrant void IEEE64AddrToStr(unsigned char *, unsigned char *)
   \                     IEEE64AddrToStr:
   \   000000   74F2         MOV     A,#-0xe
   \   000002   12....       LCALL   ?BANKED_ENTER_XDATA
   \   000005                ; Saved register size: 14
   \   000005                ; Auto size: 0
   \   000005   8A..         MOV     ?V0 + 0,R2
   \   000007   8B..         MOV     ?V0 + 1,R3
   \   000009   EC           MOV     A,R4
   \   00000A   FE           MOV     R6,A
   \   00000B   ED           MOV     A,R5
   \   00000C   FF           MOV     R7,A
   \   00000D                ; Setup parameters for call to function osal_memset
   \   00000D   7C10         MOV     R4,#0x10
   \   00000F   7D00         MOV     R5,#0x0
   \   000011   7930         MOV     R1,#0x30
   \   000013   EE           MOV     A,R6
   \   000014   FA           MOV     R2,A
   \   000015   EF           MOV     A,R7
   \   000016   FB           MOV     R3,A
   \   000017   12....       LCALL   ??osal_memset?relay
   \   00001A   75..00       MOV     ?V0 + 2,#0x0
   \                     ??IEEE64AddrToStr_0:
   \   00001D   85..82       MOV     DPL,?V0 + 2
   \   000020   AA82         MOV     R2,DPL
   \   000022   7B00         MOV     R3,#0x0
   \   000024                ; Setup parameters for call to function _ltoa
   \   000024   EA           MOV     A,R2
   \   000025   C3           CLR     C
   \   000026   33           RLC     A
   \   000027   F8           MOV     R0,A
   \   000028   E4           CLR     A
   \   000029   33           RLC     A
   \   00002A   F9           MOV     R1,A
   \   00002B   EE           MOV     A,R6
   \   00002C   28           ADD     A,R0
   \   00002D   F5..         MOV     ?V0 + 4,A
   \   00002F   EF           MOV     A,R7
   \   000030   39           ADDC    A,R1
   \   000031   F5..         MOV     ?V0 + 5,A
   \   000033   78..         MOV     R0,#?V0 + 4
   \   000035   12....       LCALL   ?PUSH_XSTACK_I_TWO
   \   000038   7910         MOV     R1,#0x10
   \   00003A   E5..         MOV     A,?V0 + 0
   \   00003C   2A           ADD     A,R2
   \   00003D   12....       LCALL   ?Subroutine5 & 0xFFFF
   \                     ??CrossCallReturnLabel_29:
   \   000040   FA           MOV     R2,A
   \   000041   E4           CLR     A
   \   000042   FC           MOV     R4,A
   \   000043   FD           MOV     R5,A
   \   000044   12....       LCALL   ??_ltoa?relay
   \   000047   7402         MOV     A,#0x2
   \   000049   12....       LCALL   ?DEALLOC_XSTACK8
   \   00004C   05..         INC     ?V0 + 2
   \   00004E   E5..         MOV     A,?V0 + 2
   \   000050   C3           CLR     C
   \   000051   9408         SUBB    A,#0x8
   \   000053   40C8         JC      ??IEEE64AddrToStr_0
   \   000055   7F06         MOV     R7,#0x6
   \   000057   02....       LJMP    ?BANKED_LEAVE_XDATA

   \                                 In  segment BANKED_CODE, align 1, keep-with-next
   \                     ?Subroutine5:
   \   000000   F582         MOV     DPL,A
   \   000002   E5..         MOV     A,?V0 + 1
   \   000004                REQUIRE ??Subroutine16_0
   \   000004                ; // Fall through to label ??Subroutine16_0

   \                                 In  segment BANKED_CODE, align 1, keep-with-next
   \                     ??Subroutine16_0:
   \   000000   3400         ADDC    A,#0x0
   \   000002   F583         MOV     DPH,A
   \   000004   E0           MOVX    A,@DPTR
   \   000005   22           RET
     16          #include "Ethernet_Config.h"

   \                                 In  segment XDATA_I, align 1, keep-with-next
   \   char *__xdata COMMANDS[12]
   \                     COMMANDS:
   \   000000                DS 24
   \   000018                REQUIRE `?<Initializer for COMMANDS>`
   \   000018                REQUIRE __INIT_XDATA_I

   \                                 In  segment BANKED_CODE, align 1, keep-with-next
   \   __banked_func __xdata_reentrant void initESP(void)
   \                     initESP:
   \   000000   74F4         MOV     A,#-0xc
   \   000002   12....       LCALL   ?BANKED_ENTER_XDATA
   \   000005                ; Saved register size: 12
   \   000005                ; Auto size: 0
   \   000005   75..05       MOV     ?V0 + 0,#0x5

          HalUARTWrite(0, COMMANDS[stage], osal_strlen(COMMANDS[stage]));
                          ^
"C:\Users\Administrator\Desktop\Git-Local-Repositories\vehicle_positioning_system\MainApp\Projects\zstack\Samples\SampleApp\Source\Ethernet_Config.h",35  Warning[Pe167]: 
          argument of type "char *" is incompatible with parameter of type
          "unsigned char *"
   \                     ??initESP_0:
   \   000008   E5..         MOV     A,?V0 + 0
   \   00000A   C3           CLR     C
   \   00000B   33           RLC     A
   \   00000C   F8           MOV     R0,A
   \   00000D   E4           CLR     A
   \   00000E   33           RLC     A
   \   00000F   F9           MOV     R1,A
   \   000010   74..         MOV     A,#COMMANDS & 0xff
   \   000012   28           ADD     A,R0
   \   000013   F8           MOV     R0,A
   \   000014   74..         MOV     A,#(COMMANDS >> 8) & 0xff
   \   000016   39           ADDC    A,R1
   \   000017   F9           MOV     R1,A
   \   000018   E8           MOV     A,R0
   \   000019   FE           MOV     R6,A
   \   00001A   E9           MOV     A,R1
   \   00001B   FF           MOV     R7,A
   \   00001C                ; Setup parameters for call to function osal_strlen
   \   00001C   8E82         MOV     DPL,R6
   \   00001E   8F83         MOV     DPH,R7
   \   000020   12....       LCALL   ?Subroutine7 & 0xFFFF
   \                     ??CrossCallReturnLabel_5:
   \   000023                ; Setup parameters for call to function HalUARTWrite
   \   000023   8E82         MOV     DPL,R6
   \   000025   8F83         MOV     DPH,R7
   \   000027   12....       LCALL   ?Subroutine8 & 0xFFFF
   \                     ??CrossCallReturnLabel_8:
   \   00002A   7403         MOV     A,#0x3
   \   00002C   65..         XRL     A,?V0 + 0
   \   00002E   700C         JNZ     ??CrossCallReturnLabel_9

              HalUARTWrite(0, COMMANDS[0], osal_strlen(COMMANDS[0]));   //
                              ^
"C:\Users\Administrator\Desktop\Git-Local-Repositories\vehicle_positioning_system\MainApp\Projects\zstack\Samples\SampleApp\Source\Ethernet_Config.h",38  Warning[Pe167]: 
          argument of type "char *" is incompatible with parameter of type
          "unsigned char *"
   \   000030                ; Setup parameters for call to function osal_strlen
   \   000030   90....       MOV     DPTR,#COMMANDS
   \   000033   12....       LCALL   ?Subroutine7 & 0xFFFF
   \                     ??CrossCallReturnLabel_6:
   \   000036                ; Setup parameters for call to function HalUARTWrite
   \   000036   90....       MOV     DPTR,#COMMANDS
   \   000039   12....       LCALL   ?Subroutine8 & 0xFFFF
   \                     ??CrossCallReturnLabel_9:
   \   00003C   05..         INC     ?V0 + 0
   \   00003E   E5..         MOV     A,?V0 + 0
   \   000040   C3           CLR     C
   \   000041   9406         SUBB    A,#0x6
   \   000043   40C3         JC      ??initESP_0
   \   000045                ; Setup parameters for call to function HalLedSet
   \   000045   7A00         MOV     R2,#0x0
   \   000047   7901         MOV     R1,#0x1
   \   000049   12....       LCALL   ??HalLedSet?relay
   \   00004C   02....       LJMP    ??Subroutine17_0 & 0xFFFF

   \                                 In  segment BANKED_CODE, align 1, keep-with-next
   \                     ??Subroutine17_0:
   \   000000   7F04         MOV     R7,#0x4
   \   000002   02....       LJMP    ?BANKED_LEAVE_XDATA

   \                                 In  segment BANKED_CODE, align 1, keep-with-next
   \                     ?Subroutine8:
   \   000000   E0           MOVX    A,@DPTR
   \   000001   12....       LCALL   ?Subroutine14 & 0xFFFF
   \                     ??CrossCallReturnLabel_26:
   \   000004   22           RET

   \                                 In  segment BANKED_CODE, align 1, keep-with-next
   \                     ?Subroutine14:
   \   000000   FA           MOV     R2,A
   \   000001   A3           INC     DPTR
   \   000002   E0           MOVX    A,@DPTR
   \   000003   FB           MOV     R3,A
   \   000004   7900         MOV     R1,#0x0
   \   000006   12....       LCALL   ??HalUARTWrite?relay
   \   000009   22           RET

   \                                 In  segment BANKED_CODE, align 1, keep-with-next
   \                     ?Subroutine7:
   \   000000   E0           MOVX    A,@DPTR
   \   000001   FA           MOV     R2,A
   \   000002   A3           INC     DPTR
   \   000003   E0           MOVX    A,@DPTR
   \   000004   FB           MOV     R3,A
   \   000005   12....       LCALL   ??osal_strlen?relay
   \   000008   8A..         MOV     ?V0 + 2,R2
   \   00000A   8B..         MOV     ?V0 + 3,R3
   \   00000C   AC..         MOV     R4,?V0 + 2
   \   00000E   AD..         MOV     R5,?V0 + 3
   \   000010   22           RET

   \                                 In  segment BANKED_CODE, align 1, keep-with-next
   \   __banked_func __xdata_reentrant void uploadData(struct <unnamed> *)
   \                     uploadData:
   \   000000   74F4         MOV     A,#-0xc
   \   000002   12....       LCALL   ?BANKED_ENTER_XDATA
   \   000005                ; Saved register size: 12
   \   000005                ; Auto size: 20
   \   000005   74EC         MOV     A,#-0x14
   \   000007   12....       LCALL   ?ALLOC_XSTACK8
   \   00000A   8A..         MOV     ?V0 + 0,R2
   \   00000C   8B..         MOV     ?V0 + 1,R3
   \   00000E   EA           MOV     A,R2
   \   00000F   241F         ADD     A,#0x1f
   \   000011   FE           MOV     R6,A
   \   000012   EB           MOV     A,R3
   \   000013   3400         ADDC    A,#0x0
   \   000015   FF           MOV     R7,A
   \   000016                ; Setup parameters for call to function _ltoa
   \   000016   85..82       MOV     DPL,?XSP + 0
   \   000019   85..83       MOV     DPH,?XSP + 1
   \   00001C   8582..       MOV     ?V0 + 2,DPL
   \   00001F   8583..       MOV     ?V0 + 3,DPH
   \   000022   78..         MOV     R0,#?V0 + 2
   \   000024   12....       LCALL   ?PUSH_XSTACK_I_TWO
   \   000027   790A         MOV     R1,#0xa
   \   000029   8E82         MOV     DPL,R6
   \   00002B   8F83         MOV     DPH,R7
   \   00002D   E0           MOVX    A,@DPTR
   \   00002E   F5..         MOV     ?V0 + 2,A
   \   000030   A3           INC     DPTR
   \   000031   E0           MOVX    A,@DPTR
   \   000032   AA..         MOV     R2,?V0 + 2
   \   000034   FB           MOV     R3,A
   \   000035   E4           CLR     A
   \   000036   FC           MOV     R4,A
   \   000037   FD           MOV     R5,A
   \   000038   12....       LCALL   ??_ltoa?relay
   \   00003B   7402         MOV     A,#0x2
   \   00003D   12....       LCALL   ?DEALLOC_XSTACK8

      HalUARTWrite(0, COMMANDS[6], osal_strlen(COMMANDS[6]));
                      ^
"C:\Users\Administrator\Desktop\Git-Local-Repositories\vehicle_positioning_system\MainApp\Projects\zstack\Samples\SampleApp\Source\Ethernet_Config.h",49  Warning[Pe167]: 
          argument of type "char *" is incompatible with parameter of type
          "unsigned char *"
   \   000040                ; Setup parameters for call to function osal_strlen
   \   000040   90....       MOV     DPTR,#COMMANDS + 12
   \   000043   12....       LCALL   ?Subroutine7 & 0xFFFF
   \                     ??CrossCallReturnLabel_7:
   \   000046                ; Setup parameters for call to function HalUARTWrite
   \   000046   90....       MOV     DPTR,#COMMANDS + 12
   \   000049   12....       LCALL   ?Subroutine8 & 0xFFFF
   \                     ??CrossCallReturnLabel_10:
   \   00004C                ; Setup parameters for call to function HalUARTWrite
   \   00004C   7C01         MOV     R4,#0x1
   \   00004E   7D00         MOV     R5,#0x0
   \   000050   7A..         MOV     R2,#`?<Constant "=">` & 0xff
   \   000052   7B..         MOV     R3,#(`?<Constant "=">` >> 8) & 0xff
   \   000054   12....       LCALL   ?Subroutine6 & 0xFFFF

      HalUARTWrite(0, len, osal_strlen(len));
                                       ^
"C:\Users\Administrator\Desktop\Git-Local-Repositories\vehicle_positioning_system\MainApp\Projects\zstack\Samples\SampleApp\Source\Ethernet_Config.h",51  Warning[Pe167]: 
          argument of type "unsigned char *" is incompatible with parameter of
          type "char *"
   \                     ??CrossCallReturnLabel_2:
   \   000057                ; Setup parameters for call to function HalUARTWrite
   \   000057   7C02         MOV     R4,#0x2
   \   000059   7D00         MOV     R5,#0x0
   \   00005B   7A..         MOV     R2,#`?<Constant "\\r\\n">` & 0xff
   \   00005D   7B..         MOV     R3,#(`?<Constant "\\r\\n">` >> 8) & 0xff
   \   00005F   7900         MOV     R1,#0x0
   \   000061   12....       LCALL   ??HalUARTWrite?relay
   \   000064                ; Setup parameters for call to function HalUARTWrite
   \   000064   8E82         MOV     DPL,R6
   \   000066   8F83         MOV     DPH,R7
   \   000068   E0           MOVX    A,@DPTR
   \   000069   FC           MOV     R4,A
   \   00006A   A3           INC     DPTR
   \   00006B   E0           MOVX    A,@DPTR
   \   00006C   FD           MOV     R5,A
   \   00006D   E5..         MOV     A,?V0 + 0
   \   00006F   2421         ADD     A,#0x21
   \   000071   12....       LCALL   ?Subroutine5 & 0xFFFF
   \                     ??CrossCallReturnLabel_30:
   \   000074   12....       LCALL   ?Subroutine14 & 0xFFFF
   \                     ??CrossCallReturnLabel_25:
   \   000077                ; Setup parameters for call to function HalLedBlink
   \   000077   7CF4         MOV     R4,#-0xc
   \   000079   7D01         MOV     R5,#0x1
   \   00007B   7B32         MOV     R3,#0x32
   \   00007D   7A02         MOV     R2,#0x2
   \   00007F   7902         MOV     R1,#0x2
   \   000081   12....       LCALL   ??HalLedBlink?relay
   \   000084   7414         MOV     A,#0x14
   \   000086                REQUIRE ?Subroutine2
   \   000086                ; // Fall through to label ?Subroutine2

   \                                 In  segment BANKED_CODE, align 1, keep-with-next
   \                     ?Subroutine2:
   \   000000   12....       LCALL   ?DEALLOC_XSTACK8
   \   000003                REQUIRE ??Subroutine17_0
   \   000003                ; // Fall through to label ??Subroutine17_0

   \                                 In  segment BANKED_CODE, align 1, keep-with-next
   \                     ?Subroutine6:
   \   000000   7900         MOV     R1,#0x0
   \   000002   12....       LCALL   ??HalUARTWrite?relay
   \   000005                ; Setup parameters for call to function HalUARTWrite
   \   000005                ; Setup parameters for call to function osal_strlen
   \   000005                ; Setup parameters for call to function HalUARTWrite
   \   000005                ; Setup parameters for call to function osal_strlen
   \   000005                ; Setup parameters for call to function HalUARTWrite
   \   000005                ; Setup parameters for call to function osal_strlen
   \   000005   85..82       MOV     DPL,?XSP + 0
   \   000008   85..83       MOV     DPH,?XSP + 1
   \   00000B   AA82         MOV     R2,DPL
   \   00000D   AB83         MOV     R3,DPH
   \   00000F   12....       LCALL   ??osal_strlen?relay
   \   000012   EA           MOV     A,R2
   \   000013   FC           MOV     R4,A
   \   000014   EB           MOV     A,R3
   \   000015   FD           MOV     R5,A
   \   000016   85..82       MOV     DPL,?XSP + 0
   \   000019   85..83       MOV     DPH,?XSP + 1
   \   00001C   AA82         MOV     R2,DPL
   \   00001E   AB83         MOV     R3,DPH
   \   000020   7900         MOV     R1,#0x0
   \   000022   12....       LCALL   ??HalUARTWrite?relay
   \   000025   22           RET
     17          
     18          // 任务蔟号, 注册某一任务的某一功能

   \                                 In  segment XDATA_ROM_C, align 1
     19          const cId_t SampleApp_ClusterList[SAMPLEAPP_MAX_CLUSTERS] =
   \                     SampleApp_ClusterList:
   \   000000   0100         DW 1
     20          {
     21              SAMPLEAPP_PERIODIC_CLUSTERID,
     22          };
     23          
     24          //设备的简单描述符

   \                                 In  segment XDATA_ROM_C, align 1
     25          const SimpleDescriptionFormat_t SampleApp_SimpleDesc =
   \                     SampleApp_SimpleDesc:
   \   000000   14           DB 20
   \   000001   080F         DW 3848
   \   000003   0100         DW 1
   \   000005   00           DB 0
   \   000006   01           DB 1
   \   000007   ....         DW SampleApp_ClusterList
   \   000009   01           DB 1
   \   00000A   ....         DW SampleApp_ClusterList
     26          {
     27              SAMPLEAPP_ENDPOINT,              //  int Endpoint;
     28              SAMPLEAPP_PROFID,                //  uint16 AppProfId[2];
     29              SAMPLEAPP_DEVICEID,              //  uint16 AppDeviceId[2];
     30              SAMPLEAPP_DEVICE_VERSION,        //  int   AppDevVer:4;
     31              SAMPLEAPP_FLAGS,                 //  int   AppFlags:4;
     32              SAMPLEAPP_MAX_CLUSTERS,          //  uint8  AppNumInClusters;
     33              (cId_t *)SampleApp_ClusterList,  //  uint8 *pAppInClusterList;
     34              SAMPLEAPP_MAX_CLUSTERS,          //  uint8  AppNumInClusters;
     35              (cId_t *)SampleApp_ClusterList   //  uint8 *pAppInClusterList;
     36          };
     37          

   \                                 In  segment XDATA_Z, align 1, keep-with-next
     38          endPointDesc_t SampleApp_epDesc;
   \                     SampleApp_epDesc:
   \   000000                DS 6
   \   000006                REQUIRE __INIT_XDATA_Z
     39          
     40          /*********************************************************************
     41           * LOCAL VARIABLES
     42           */

   \                                 In  segment XDATA_Z, align 1, keep-with-next
     43          uint8 SampleApp_TaskID;   // 任务号, 任务号越小优先级越高, 在SampleApp_Init()被调用时初始化
   \                     SampleApp_TaskID:
   \   000000                DS 1
   \   000001                REQUIRE __INIT_XDATA_Z

   \                                 In  segment XDATA_Z, align 1, keep-with-next
     44          devStates_t SampleApp_NwkState;
   \                     SampleApp_NwkState:
   \   000000                DS 1
   \   000001                REQUIRE __INIT_XDATA_Z
     45          

   \                                 In  segment XDATA_Z, align 1, keep-with-next
     46          uint8 SampleApp_TransID;  // 消息标识码
   \                     SampleApp_TransID:
   \   000000                DS 1
   \   000001                REQUIRE __INIT_XDATA_Z
     47          

   \                                 In  segment XDATA_Z, align 1, keep-with-next
     48          afAddrType_t SampleApp_Periodic_DstAddr;    //发送目标地址描述符
   \                     SampleApp_Periodic_DstAddr:
   \   000000                DS 12
   \   00000C                REQUIRE __INIT_XDATA_Z
     49          
     50          /*********************************************************************
     51           * LOCAL FUNCTIONS
     52           */
     53          void SampleApp_MessageMSGCB( afIncomingMSGPacket_t *pckt );
     54          void SampleApp_SendPeriodicMessage( uint8 *data, uint16 len );
     55          
     56          void initLed(void);
     57          void initUart(uint8 port, void (*callBack)(uint8, uint8), uint16 baudRate);
     58          
     59          /*********************************************************************
     60           * 初始化函数
     61           */
     62          // LED初始化, 用于表示设备的网络状态

   \                                 In  segment BANKED_CODE, align 1, keep-with-next
     63          void initLed(void)
   \                     initLed:
     64          {
   \   000000   C082         PUSH    DPL
   \   000002   C083         PUSH    DPH
   \   000004                ; Saved register size: 2
   \   000004                ; Auto size: 0
     65              HalLedInit();
   \   000004                ; Setup parameters for call to function HalLedInit
   \   000004   12....       LCALL   ??HalLedInit?relay
     66              HalLedSet(HAL_LED_1, HAL_LED_MODE_ON);   //未入网前为关闭状态, 入网后长亮
   \   000007                ; Setup parameters for call to function HalLedSet
   \   000007   7A01         MOV     R2,#0x1
   \   000009   7901         MOV     R1,#0x1
   \   00000B   12....       LCALL   ??HalLedSet?relay
     67              HalLedSet(HAL_LED_2, HAL_LED_MODE_ON);   //发送信息时闪烁
   \   00000E                ; Setup parameters for call to function HalLedSet
   \   00000E   7A01         MOV     R2,#0x1
   \   000010   7902         MOV     R1,#0x2
   \   000012   12....       LCALL   ??HalLedSet?relay
     68              HalLedSet(HAL_LED_3, HAL_LED_MODE_ON);   //接受信息时闪烁
   \   000015                ; Setup parameters for call to function HalLedSet
   \   000015   7A01         MOV     R2,#0x1
   \   000017   7904         MOV     R1,#0x4
   \   000019   12....       LCALL   ??HalLedSet?relay
     69              
     70          }
   \   00001C   02....       LJMP    ?Subroutine0 & 0xFFFF
     71           
     72          //串口初始化(DMA传送模式和ISR模式)

   \                                 In  segment BANKED_CODE, align 1, keep-with-next
     73          void initUart(uint8 port, void (*callBack)(uint8, uint8), uint16 baudRate)
   \                     initUart:
     74          {
   \   000000   74F7         MOV     A,#-0x9
   \   000002   12....       LCALL   ?BANKED_ENTER_XDATA
   \   000005                ; Saved register size: 9
   \   000005                ; Auto size: 29
   \   000005   74E3         MOV     A,#-0x1d
   \   000007   12....       LCALL   ?ALLOC_XSTACK8
     75              //UART设置
     76              halUARTCfg_t uartConfig;
     77              uartConfig.configured           = TRUE;             //设置有效标志
   \   00000A   85..82       MOV     DPL,?XSP + 0
   \   00000D   85..83       MOV     DPH,?XSP + 1
   \   000010   7401         MOV     A,#0x1
   \   000012   F0           MOVX    @DPTR,A
     78              uartConfig.baudRate             = baudRate;         //波特率设置
   \   000013   12....       LCALL   ?XSTACK_DISP0_8
   \   000016   EC           MOV     A,R4
   \   000017   F0           MOVX    @DPTR,A
     79              uartConfig.flowControl          = FALSE;           //关闭流控制(流控制需要四线传输,加上CTS,RTS)
   \   000018   7402         MOV     A,#0x2
   \   00001A   12....       LCALL   ?XSTACK_DISP0_8
   \   00001D   E4           CLR     A
   \   00001E   F0           MOVX    @DPTR,A
     80              uartConfig.rx.maxBufSize        = 256;            //rx缓冲区的长度
   \   00001F   740A         MOV     A,#0xa
   \   000021   12....       LCALL   ?XSTACK_DISP0_8
   \   000024   E4           CLR     A
   \   000025   F0           MOVX    @DPTR,A
   \   000026   A3           INC     DPTR
   \   000027   04           INC     A
   \   000028   F0           MOVX    @DPTR,A
     81              uartConfig.tx.maxBufSize        = 256;            //tx缓冲区的长度
   \   000029   7412         MOV     A,#0x12
   \   00002B   12....       LCALL   ?XSTACK_DISP0_8
   \   00002E   E4           CLR     A
   \   00002F   F0           MOVX    @DPTR,A
   \   000030   A3           INC     DPTR
   \   000031   04           INC     A
   \   000032   F0           MOVX    @DPTR,A
     82              uartConfig.idleTimeout          = 6;              //RX为空的允许时间
   \   000033   7405         MOV     A,#0x5
   \   000035   12....       LCALL   ?XSTACK_DISP0_8
   \   000038   7406         MOV     A,#0x6
   \   00003A   F0           MOVX    @DPTR,A
     83              uartConfig.intEnable            = TRUE;           //中断允许
   \   00003B   7416         MOV     A,#0x16
   \   00003D   12....       LCALL   ?XSTACK_DISP0_8
   \   000040   7401         MOV     A,#0x1
   \   000042   F0           MOVX    @DPTR,A
     84              uartConfig.callBackFunc         = callBack;       //当出现回调事件时的回调函数
   \   000043   741B         MOV     A,#0x1b
   \   000045   12....       LCALL   ?XSTACK_DISP0_8
   \   000048   EA           MOV     A,R2
   \   000049   F0           MOVX    @DPTR,A
   \   00004A   A3           INC     DPTR
   \   00004B   EB           MOV     A,R3
   \   00004C   F0           MOVX    @DPTR,A
     85                                                                //回调事件列表:
     86                                                                //HAL_UART_RX_FULL        RX满
     87                                                                //HAL_UART_RX_ABOUT_FULL  RX超过流量控制阀值
     88                                                                //HAL_UART_RX_TIMEOUT     RX为空的时间超过限制
     89                                                                //HAL_UART_TX_FULL        TX满
     90              
     91              HalUARTOpen (port, &uartConfig);
   \   00004D                ; Setup parameters for call to function HalUARTOpen
   \   00004D   85..82       MOV     DPL,?XSP + 0
   \   000050   85..83       MOV     DPH,?XSP + 1
   \   000053   AA82         MOV     R2,DPL
   \   000055   AB83         MOV     R3,DPH
   \   000057   12....       LCALL   ??HalUARTOpen?relay
     92          }
   \   00005A   741D         MOV     A,#0x1d
   \   00005C   12....       LCALL   ?DEALLOC_XSTACK8
   \   00005F                REQUIRE ?Subroutine3
   \   00005F                ; // Fall through to label ?Subroutine3

   \                                 In  segment BANKED_CODE, align 1, keep-with-next
   \                     ?Subroutine3:
   \   000000   7F01         MOV     R7,#0x1
   \   000002   02....       LJMP    ?BANKED_LEAVE_XDATA
     93          
     94          
     95          /*********************************************************************
     96           * @fn      SampleApp_Init
     97           *
     98           * @brief   初始化所有任务相关硬件和设备状态
     99           *
    100           * @param   task_id 消息发送的目标任务ID
    101           *
    102           * @return   无
    103           */

   \                                 In  segment BANKED_CODE, align 1, keep-with-next
    104          void SampleApp_Init(uint8 task_id)
   \                     SampleApp_Init:
    105          { 
   \   000000   74F7         MOV     A,#-0x9
   \   000002   12....       LCALL   ?BANKED_ENTER_XDATA
   \   000005                ; Saved register size: 9
   \   000005                ; Auto size: 0
   \   000005   E9           MOV     A,R1
    106              SampleApp_TaskID = task_id;
   \   000006   90....       MOV     DPTR,#SampleApp_TaskID
   \   000009   F0           MOVX    @DPTR,A
    107              SampleApp_NwkState = DEV_INIT;  //初始化设备网络状态
   \   00000A   90....       MOV     DPTR,#SampleApp_NwkState
   \   00000D   7401         MOV     A,#0x1
   \   00000F   F0           MOVX    @DPTR,A
    108              SampleApp_TransID = 0;
   \   000010   90....       MOV     DPTR,#SampleApp_TransID
   \   000013   E4           CLR     A
   \   000014   F0           MOVX    @DPTR,A
    109              
    110              initLed();                  //初始化LED灯
   \   000015                ; Setup parameters for call to function initLed
   \   000015   12....       LCALL   ??initLed?relay
    111              initUart(0, NULL, HAL_UART_BR_115200);          //初始化与上位机相连的串口
   \   000018                ; Setup parameters for call to function initUart
   \   000018   7C04         MOV     R4,#0x4
   \   00001A   7D00         MOV     R5,#0x0
   \   00001C   7A00         MOV     R2,#0x0
   \   00001E   7B00         MOV     R3,#0x0
   \   000020   7900         MOV     R1,#0x0
   \   000022   12....       LCALL   ??initUart?relay
    112              
    113              #ifdef ZDO_COORDINATOR
    114                  initESP();
   \   000025                ; Setup parameters for call to function initESP
   \   000025   12....       LCALL   ??initESP?relay
    115              #else
    116                  initUart(1, recGPSData, HAL_UART_BR_9600);    //初始化与GPS相连的串口
    117                  initGeoBuf();               //初始化GPS数据缓冲池
    118              #endif
    119              
    120              // 设置消息发送目标地址(广播模式)
    121              SampleApp_Periodic_DstAddr.addrMode = (afAddrMode_t)AddrBroadcast;
   \   000028   90....       MOV     DPTR,#SampleApp_Periodic_DstAddr + 8
   \   00002B   740F         MOV     A,#0xf
   \   00002D   F0           MOVX    @DPTR,A
    122              SampleApp_Periodic_DstAddr.endPoint = SAMPLEAPP_ENDPOINT;
   \   00002E   A3           INC     DPTR
   \   00002F   7414         MOV     A,#0x14
   \   000031   F0           MOVX    @DPTR,A
    123              SampleApp_Periodic_DstAddr.addr.shortAddr = 0xFFFF;
   \   000032   90....       MOV     DPTR,#SampleApp_Periodic_DstAddr
   \   000035   74FF         MOV     A,#-0x1
   \   000037   F0           MOVX    @DPTR,A
   \   000038   A3           INC     DPTR
   \   000039   F0           MOVX    @DPTR,A
    124              
    125              // 填充端点描述符
    126              SampleApp_epDesc.endPoint = SAMPLEAPP_ENDPOINT;
   \   00003A   90....       MOV     DPTR,#SampleApp_epDesc
   \   00003D   7414         MOV     A,#0x14
   \   00003F   F0           MOVX    @DPTR,A
    127              SampleApp_epDesc.task_id = &SampleApp_TaskID;
   \   000040   A3           INC     DPTR
   \   000041   74..         MOV     A,#SampleApp_TaskID & 0xff
   \   000043   F0           MOVX    @DPTR,A
   \   000044   A3           INC     DPTR
   \   000045   74..         MOV     A,#(SampleApp_TaskID >> 8) & 0xff
   \   000047   F0           MOVX    @DPTR,A
    128              SampleApp_epDesc.simpleDesc
    129                      = (SimpleDescriptionFormat_t *)&SampleApp_SimpleDesc;
   \   000048   A3           INC     DPTR
   \   000049   74..         MOV     A,#SampleApp_SimpleDesc & 0xff
   \   00004B   F0           MOVX    @DPTR,A
   \   00004C   A3           INC     DPTR
   \   00004D   74..         MOV     A,#(SampleApp_SimpleDesc >> 8) & 0xff
   \   00004F   F0           MOVX    @DPTR,A
    130              SampleApp_epDesc.latencyReq = noLatencyReqs;        //必选项
   \   000050   A3           INC     DPTR
   \   000051   E4           CLR     A
   \   000052   F0           MOVX    @DPTR,A
    131              
    132              // 向应用层注册端点
    133              afRegister( &SampleApp_epDesc );
   \   000053                ; Setup parameters for call to function afRegister
   \   000053   7A..         MOV     R2,#SampleApp_epDesc & 0xff
   \   000055   7B..         MOV     R3,#(SampleApp_epDesc >> 8) & 0xff
   \   000057   12....       LCALL   ??afRegister?relay
    134              
    135              // 表明这个APP处理所有事务
    136              RegisterForKeys( SampleApp_TaskID );
   \   00005A                ; Setup parameters for call to function RegisterForKeys
   \   00005A   90....       MOV     DPTR,#SampleApp_TaskID
   \   00005D   E0           MOVX    A,@DPTR
   \   00005E   F9           MOV     R1,A
   \   00005F   12....       LCALL   ??RegisterForKeys?relay
    137          }
   \   000062   80..         SJMP    ?Subroutine3
    138          
    139          /*********************************************************************
    140           * @fn      SampleApp_ProcessEvent
    141           *
    142           * @brief   处理所有任务相关的事件
    143           *
    144           * @param   task_id 消息发送的目标任务ID
    145           * @param   events 任务需要处理的事件, 可以同时包含多个任务, 每一位都可以表示任务信息
    146           *
    147           * @return  无
    148           */

   \                                 In  segment BANKED_CODE, align 1, keep-with-next
    149          uint16 SampleApp_ProcessEvent( uint8 task_id, uint16 events )
   \                     SampleApp_ProcessEvent:
    150          {
   \   000000   74F4         MOV     A,#-0xc
   \   000002   12....       LCALL   ?BANKED_ENTER_XDATA
   \   000005                ; Saved register size: 12
   \   000005                ; Auto size: 100
   \   000005   749C         MOV     A,#-0x64
   \   000007   12....       LCALL   ?ALLOC_XSTACK8
   \   00000A   EA           MOV     A,R2
   \   00000B   FE           MOV     R6,A
   \   00000C   EB           MOV     A,R3
   \   00000D   FF           MOV     R7,A
    151              afIncomingMSGPacket_t *MSGpkt;
    152              (void)task_id;  // Intentionally unreferenced parameter
    153              
    154              if ( events & SYS_EVENT_MSG ) //检测对应位是否为1以判定是否为是相应事件, 其余位一般为零
   \   00000E   5480         ANL     A,#0x80
   \   000010   7003         JNZ     $+5
   \   000012   02....       LJMP    ??SampleApp_ProcessEvent_0 & 0xFFFF
    155              {
    156                  MSGpkt = (afIncomingMSGPacket_t *)osal_msg_receive( SampleApp_TaskID );
   \   000015                ; Setup parameters for call to function osal_msg_receive
   \   000015   803D         SJMP    ??SampleApp_ProcessEvent_1
    157                  
    158                  while ( MSGpkt )
    159                  {
    160                      switch ( MSGpkt->hdr.event )
    161                      {    
    162                          // 当收到别的结点发送过来的消息时, 触发这个事件
    163                          case AF_INCOMING_MSG_CMD:
    164                              #ifdef ZDO_COORDINATOR
    165                                  uploadData(MSGpkt);
    166                              #else
    167                                  SampleApp_MessageMSGCB(MSGpkt);
    168                              #endif
    169                              HalLedBlink(HAL_LED_3, 2, 50, 500); // LED3亮 2次, 暗的时间占闪烁周期的50%, 周期为500毫秒
    170                              
    171                              break;
    172                      
    173                          // 网络状态改变触发此事件, 也就意味着只有当建网成功后才会开始间隔发送消息
    174                          case ZDO_STATE_CHANGE:
    175                              SampleApp_NwkState = (devStates_t)(MSGpkt->hdr.status);
   \                     ??SampleApp_ProcessEvent_2:
   \   000017   A3           INC     DPTR
   \   000018   E0           MOVX    A,@DPTR
   \   000019   90....       MOV     DPTR,#SampleApp_NwkState
   \   00001C   F0           MOVX    @DPTR,A
    176                              if ( //(SampleApp_NwkState == DEV_ZB_COORD) ||
    177                                  (SampleApp_NwkState == DEV_ROUTER)
    178                                  || (SampleApp_NwkState == DEV_END_DEVICE) )
   \   00001D   6407         XRL     A,#0x7
   \   00001F   6005         JZ      ??SampleApp_ProcessEvent_3
   \   000021   E0           MOVX    A,@DPTR
   \   000022   6406         XRL     A,#0x6
   \   000024   7027         JNZ     ??SampleApp_ProcessEvent_4
    179                              {
    180                                  // 当网络建立成功时
    181                                  HalUARTWrite(0, "Link Start!\n", osal_strlen("Link Start!\n"));
   \                     ??SampleApp_ProcessEvent_3:
   \   000026                ; Setup parameters for call to function HalUARTWrite
   \   000026                ; Setup parameters for call to function osal_strlen
   \   000026   7A..         MOV     R2,#`?<Constant "Link Start!\\n">` & 0xff
   \   000028   7B..         MOV     R3,#(`?<Constant "Link Start!\\n">` >> 8) & 0xff
   \   00002A   12....       LCALL   ?Subroutine11 & 0xFFFF
   \                     ??CrossCallReturnLabel_14:
   \   00002D   7A..         MOV     R2,#`?<Constant "Link Start!\\n">` & 0xff
   \   00002F   7B..         MOV     R3,#(`?<Constant "Link Start!\\n">` >> 8) & 0xff
   \   000031   7900         MOV     R1,#0x0
   \   000033   12....       LCALL   ??HalUARTWrite?relay
    182                                  HalLedSet(HAL_LED_1, HAL_LED_MODE_OFF);  //LED长亮状态
   \   000036                ; Setup parameters for call to function HalLedSet
   \   000036   7A00         MOV     R2,#0x0
   \   000038   7901         MOV     R1,#0x1
   \   00003A   12....       LCALL   ??HalLedSet?relay
    183                                  
    184                                  // 从现在开始计时, 到规定时间即向指定任务发送时间标志, 只执行一次
    185                                  osal_start_timerEx( SampleApp_TaskID,
    186                                                      SAMPLEAPP_SEND_PERIODIC_MSG_EVT,
    187                                                      SAMPLEAPP_SEND_PERIODIC_MSG_TIMEOUT );
   \   00003D                ; Setup parameters for call to function osal_start_timerEx
   \   00003D   7CE8         MOV     R4,#-0x18
   \   00003F   7D03         MOV     R5,#0x3
   \   000041   7A01         MOV     R2,#0x1
   \   000043   7B00         MOV     R3,#0x0
   \   000045   90....       MOV     DPTR,#SampleApp_TaskID
   \   000048   E0           MOVX    A,@DPTR
   \   000049   F9           MOV     R1,A
   \   00004A   12....       LCALL   ??osal_start_timerEx?relay
    188                              }
    189                              else
    190                              {
    191                                  // 当设备脱离网络时
    192                                  #ifndef ZDO_COORDINATOR
    193                                      HalUARTWrite(0, "Lose Connection!\n", osal_strlen("Lose Connection!\n"));
    194                                      HalLedSet(HAL_LED_1, HAL_LED_MODE_ON);
    195                                  #endif
    196                              }
    197                              break;
    198                      
    199                          default:
    200                              break;
    201                      }
    202                  
    203                      // 释放空间
    204                      osal_msg_deallocate( (uint8 *)MSGpkt );
   \                     ??SampleApp_ProcessEvent_4:
   \   00004D                ; Setup parameters for call to function osal_msg_deallocate
   \   00004D   AA..         MOV     R2,?V0 + 0
   \   00004F   AB..         MOV     R3,?V0 + 1
   \   000051   12....       LCALL   ??osal_msg_deallocate?relay
    205                  
    206                      // 如果缓冲区还有剩余的事件则继续处理
    207                      MSGpkt = (afIncomingMSGPacket_t *)osal_msg_receive( SampleApp_TaskID );
   \   000054                ; Setup parameters for call to function osal_msg_receive
   \                     ??SampleApp_ProcessEvent_1:
   \   000054   90....       MOV     DPTR,#SampleApp_TaskID
   \   000057   E0           MOVX    A,@DPTR
   \   000058   F9           MOV     R1,A
   \   000059   12....       LCALL   ??osal_msg_receive?relay
   \   00005C   8A..         MOV     ?V0 + 0,R2
   \   00005E   8B..         MOV     ?V0 + 1,R3
   \   000060   E5..         MOV     A,?V0 + 0
   \   000062   45..         ORL     A,?V0 + 1
   \   000064   6027         JZ      ??SampleApp_ProcessEvent_5
   \   000066   85..82       MOV     DPL,?V0 + 0
   \   000069   85..83       MOV     DPH,?V0 + 1
   \   00006C   E0           MOVX    A,@DPTR
   \   00006D   24E6         ADD     A,#-0x1a
   \   00006F   6006         JZ      ??SampleApp_ProcessEvent_6
   \   000071   2449         ADD     A,#0x49
   \   000073   60A2         JZ      ??SampleApp_ProcessEvent_2
   \   000075   80D6         SJMP    ??SampleApp_ProcessEvent_4
   \                     ??SampleApp_ProcessEvent_6:
   \   000077                ; Setup parameters for call to function uploadData
   \   000077   AA..         MOV     R2,?V0 + 0
   \   000079   AB..         MOV     R3,?V0 + 1
   \   00007B   12....       LCALL   ??uploadData?relay
   \   00007E                ; Setup parameters for call to function HalLedBlink
   \   00007E   7CF4         MOV     R4,#-0xc
   \   000080   7D01         MOV     R5,#0x1
   \   000082   7B32         MOV     R3,#0x32
   \   000084   7A02         MOV     R2,#0x2
   \   000086   7904         MOV     R1,#0x4
   \   000088   12....       LCALL   ??HalLedBlink?relay
   \   00008B   80C0         SJMP    ??SampleApp_ProcessEvent_4
    208                  }
    209                  
    210                  // 返回未处理的事件
    211                  return (events ^ SYS_EVENT_MSG);
   \                     ??SampleApp_ProcessEvent_5:
   \   00008D   EE           MOV     A,R6
   \   00008E   FA           MOV     R2,A
   \   00008F   EF           MOV     A,R7
   \   000090   6480         XRL     A,#0x80
   \                     ??SampleApp_ProcessEvent_7:
   \   000092   FB           MOV     R3,A
   \   000093   02....       LJMP    ??SampleApp_ProcessEvent_8 & 0xFFFF
    212              }
    213              
    214              // 设置发送消息的时间间隔, 由计时器触发
    215              if ( events & SAMPLEAPP_SEND_PERIODIC_MSG_EVT )
   \                     ??SampleApp_ProcessEvent_0:
   \   000096   EE           MOV     A,R6
   \   000097   A2E0         MOV     C,0xE0 /* A   */.0
   \   000099   4003         JC      $+5
   \   00009B   02....       LJMP    ??SampleApp_ProcessEvent_9 & 0xFFFF
    216              {
    217           
    218                  //当有可发送的数据时即发送
    219                  if(geoBuf.send != NULL)
   \   00009E   90....       MOV     DPTR,#geoBuf
   \   0000A1   12....       LCALL   ?Subroutine12 & 0xFFFF
   \                     ??CrossCallReturnLabel_20:
   \   0000A4   E8           MOV     A,R0
   \   0000A5   49           ORL     A,R1
   \   0000A6   7003         JNZ     $+5
   \   0000A8   02....       LJMP    ??SampleApp_ProcessEvent_10 & 0xFFFF
    220                  {
    221                      uint8 data[100];
    222                      uint8 len = 0;
    223                      
    224                      //填充IEEE64位地址
    225                      osal_memcpy(data, aExtendedAddress, Z_EXTADDR_LEN);
   \   0000AB                ; Setup parameters for call to function osal_memcpy
   \   0000AB   75....       MOV     ?V0 + 0,#aExtendedAddress & 0xff
   \   0000AE   75....       MOV     ?V0 + 1,#(aExtendedAddress >> 8) & 0xff
   \   0000B1   75..00       MOV     ?V0 + 2,#0x0
   \   0000B4   78..         MOV     R0,#?V0 + 0
   \   0000B6   12....       LCALL   ?PUSH_XSTACK_I_THREE
   \   0000B9   7C08         MOV     R4,#0x8
   \   0000BB   7D00         MOV     R5,#0x0
   \   0000BD   7403         MOV     A,#0x3
   \   0000BF   12....       LCALL   ?XSTACK_DISP0_8
   \   0000C2   AA82         MOV     R2,DPL
   \   0000C4   AB83         MOV     R3,DPH
   \   0000C6   12....       LCALL   ??osal_memcpy?relay
   \   0000C9   7403         MOV     A,#0x3
   \   0000CB   12....       LCALL   ?DEALLOC_XSTACK8
    226                      len += Z_EXTADDR_LEN;
    227                      
    228                      //填充GPS数据
    229                      osal_memcpy(data + len, geoBuf.send->data, geoBuf.send->len);
   \   0000CE                ; Setup parameters for call to function osal_memcpy
   \   0000CE   90....       MOV     DPTR,#geoBuf
   \   0000D1   E0           MOVX    A,@DPTR
   \   0000D2   2402         ADD     A,#0x2
   \   0000D4   F5..         MOV     ?V0 + 0,A
   \   0000D6   A3           INC     DPTR
   \   0000D7   E0           MOVX    A,@DPTR
   \   0000D8   3400         ADDC    A,#0x0
   \   0000DA   F5..         MOV     ?V0 + 1,A
   \   0000DC   78..         MOV     R0,#?V0 + 0
   \   0000DE   12....       LCALL   ?PUSH_XSTACK_I_THREE
   \   0000E1   12....       LCALL   ?Subroutine9 & 0xFFFF
   \                     ??CrossCallReturnLabel_32:
   \   0000E4   FC           MOV     R4,A
   \   0000E5   A3           INC     DPTR
   \   0000E6   E0           MOVX    A,@DPTR
   \   0000E7   FD           MOV     R5,A
   \   0000E8   740B         MOV     A,#0xb
   \   0000EA   12....       LCALL   ?XSTACK_DISP0_8
   \   0000ED   AA82         MOV     R2,DPL
   \   0000EF   AB83         MOV     R3,DPH
   \   0000F1   12....       LCALL   ??osal_memcpy?relay
   \   0000F4   7403         MOV     A,#0x3
   \   0000F6   12....       LCALL   ?DEALLOC_XSTACK8
    230                      len += geoBuf.send->len;
   \   0000F9   12....       LCALL   ?Subroutine9 & 0xFFFF
   \                     ??CrossCallReturnLabel_33:
   \   0000FC   2408         ADD     A,#0x8
   \   0000FE   F5..         MOV     ?V0 + 0,A
    231                      osal_mem_free(geoBuf.send);
   \   000100                ; Setup parameters for call to function osal_mem_free
   \   000100   90....       MOV     DPTR,#geoBuf
   \   000103   12....       LCALL   ?Subroutine13 & 0xFFFF
   \                     ??CrossCallReturnLabel_23:
   \   000106   12....       LCALL   ??osal_mem_free?relay
    232                      geoBuf.send = NULL; 
   \   000109   90....       MOV     DPTR,#geoBuf
   \   00010C   E4           CLR     A
   \   00010D   F0           MOVX    @DPTR,A
   \   00010E   A3           INC     DPTR
   \   00010F   F0           MOVX    @DPTR,A
    233                      
    234                      HalLedBlink(HAL_LED_2, 2, 50, 500); // LED2亮 2次, 暗的时间占闪烁周期的50%, 周期为500毫秒
   \   000110                ; Setup parameters for call to function HalLedBlink
   \   000110   7CF4         MOV     R4,#-0xc
   \   000112   7D01         MOV     R5,#0x1
   \   000114   7B32         MOV     R3,#0x32
   \   000116   7A02         MOV     R2,#0x2
   \   000118   7902         MOV     R1,#0x2
   \   00011A   12....       LCALL   ??HalLedBlink?relay
    235                      
    236                      //发送自机数据
    237                      HalUARTWrite(0, "LocalHost : ", osal_strlen("LocalHost : "));
   \   00011D                ; Setup parameters for call to function HalUARTWrite
   \   00011D                ; Setup parameters for call to function osal_strlen
   \   00011D   7A..         MOV     R2,#`?<Constant "LocalHost : ">` & 0xff
   \   00011F   7B..         MOV     R3,#(`?<Constant "LocalHost : ">` >> 8) & 0xff
   \   000121   12....       LCALL   ?Subroutine11 & 0xFFFF
   \                     ??CrossCallReturnLabel_15:
   \   000124   7A..         MOV     R2,#`?<Constant "LocalHost : ">` & 0xff
   \   000126   7B..         MOV     R3,#(`?<Constant "LocalHost : ">` >> 8) & 0xff
   \   000128   7900         MOV     R1,#0x0
   \   00012A   12....       LCALL   ??HalUARTWrite?relay
    238                      HalUARTWrite(0, data, len);       
   \   00012D   75..00       MOV     ?V0 + 1,#0x0
   \   000130                ; Setup parameters for call to function HalUARTWrite
   \   000130   AC..         MOV     R4,?V0 + 0
   \   000132   AD..         MOV     R5,?V0 + 1
   \   000134   85..82       MOV     DPL,?XSP + 0
   \   000137   85..83       MOV     DPH,?XSP + 1
   \   00013A   AA82         MOV     R2,DPL
   \   00013C   AB83         MOV     R3,DPH
   \   00013E   7900         MOV     R1,#0x0
   \   000140   12....       LCALL   ??HalUARTWrite?relay
    239                      
    240                      SampleApp_SendPeriodicMessage(data, len);
   \   000143                ; Setup parameters for call to function SampleApp_SendPeriodicMessage
   \   000143   AC..         MOV     R4,?V0 + 0
   \   000145   AD..         MOV     R5,?V0 + 1
   \   000147   85..82       MOV     DPL,?XSP + 0
   \   00014A   85..83       MOV     DPH,?XSP + 1
   \   00014D   AA82         MOV     R2,DPL
   \   00014F   AB83         MOV     R3,DPH
   \   000151   12....       LCALL   ??SampleApp_SendPeriodicMessage?relay
    241                  }
    242                  
    243                  // 设置事件触发的时间间隔
    244                  osal_start_timerEx( SampleApp_TaskID, SAMPLEAPP_SEND_PERIODIC_MSG_EVT,
    245                      SAMPLEAPP_SEND_PERIODIC_MSG_TIMEOUT);
   \                     ??SampleApp_ProcessEvent_10:
   \   000154                ; Setup parameters for call to function osal_start_timerEx
   \   000154   7CE8         MOV     R4,#-0x18
   \   000156   7D03         MOV     R5,#0x3
   \   000158   7A01         MOV     R2,#0x1
   \   00015A   7B00         MOV     R3,#0x0
   \   00015C   90....       MOV     DPTR,#SampleApp_TaskID
   \   00015F   E0           MOVX    A,@DPTR
   \   000160   F9           MOV     R1,A
   \   000161   12....       LCALL   ??osal_start_timerEx?relay
    246                  
    247                  // 返回未处理的事件
    248                  return (events ^ SAMPLEAPP_SEND_PERIODIC_MSG_EVT);
   \   000164   EE           MOV     A,R6
   \   000165   6401         XRL     A,#0x1
   \   000167   FA           MOV     R2,A
   \   000168   EF           MOV     A,R7
   \   000169   02....       LJMP    ??SampleApp_ProcessEvent_7 & 0xFFFF
    249              }
    250              
    251              //丢弃无用事件
    252              return 0;
   \                     ??SampleApp_ProcessEvent_9:
   \   00016C   7A00         MOV     R2,#0x0
   \   00016E   7B00         MOV     R3,#0x0
   \                     ??SampleApp_ProcessEvent_8:
   \   000170   7464         MOV     A,#0x64
   \   000172   02....       LJMP    ?Subroutine2 & 0xFFFF
    253          }

   \                                 In  segment BANKED_CODE, align 1, keep-with-next
   \                     ?Subroutine9:
   \   000000   90....       MOV     DPTR,#geoBuf
   \   000003                REQUIRE ??Subroutine18_0
   \   000003                ; // Fall through to label ??Subroutine18_0

   \                                 In  segment BANKED_CODE, align 1, keep-with-next
   \                     ?Subroutine11:
   \   000000   12....       LCALL   ??osal_strlen?relay
   \   000003   EA           MOV     A,R2
   \   000004   FC           MOV     R4,A
   \   000005   EB           MOV     A,R3
   \   000006   FD           MOV     R5,A
   \   000007   22           RET
    254          
    255          /*********************************************************************
    256           * @fn      SampleApp_MessageMSGCB
    257           *
    258           * @brief   处理别的结点发来的数据
    259           *          
    260           * @param   无
    261           *
    262           * @return  无
    263           */

   \                                 In  segment BANKED_CODE, align 1, keep-with-next
    264          void SampleApp_MessageMSGCB( afIncomingMSGPacket_t *pkt )
   \                     SampleApp_MessageMSGCB:
    265          {
   \   000000   74F6         MOV     A,#-0xa
   \   000002   12....       LCALL   ?BANKED_ENTER_XDATA
   \   000005                ; Saved register size: 10
   \   000005                ; Auto size: 36
   \   000005   74DC         MOV     A,#-0x24
   \   000007   12....       LCALL   ?ALLOC_XSTACK8
   \   00000A   EA           MOV     A,R2
   \   00000B   FE           MOV     R6,A
   \   00000C   EB           MOV     A,R3
   \   00000D   FF           MOV     R7,A
    266              
    267            uint8 num[20];
    268            switch ( pkt->clusterId )
   \   00000E   8E82         MOV     DPL,R6
   \   000010   8F83         MOV     DPH,R7
   \   000012   A3           INC     DPTR
   \   000013   A3           INC     DPTR
   \   000014   A3           INC     DPTR
   \   000015   A3           INC     DPTR
   \   000016   E0           MOVX    A,@DPTR
   \   000017   6401         XRL     A,#0x1
   \   000019   7002         JNZ     ??SampleApp_MessageMSGCB_0
   \   00001B   A3           INC     DPTR
   \   00001C   E0           MOVX    A,@DPTR
   \                     ??SampleApp_MessageMSGCB_0:
   \   00001D   6003         JZ      $+5
   \   00001F   02....       LJMP    ??CrossCallReturnLabel_11 & 0xFFFF
    269            {
    270                  case SAMPLEAPP_PERIODIC_CLUSTERID:
    271                  //输出结点所属网络PAN ID, 一个结点可以同时处在多个网络中, 用PAN ID进行区分
    272                  _ltoa(pkt->srcAddr.panId, num, 16);
   \   000022                ; Setup parameters for call to function _ltoa
   \   000022   85..82       MOV     DPL,?XSP + 0
   \   000025   85..83       MOV     DPH,?XSP + 1
   \   000028   8582..       MOV     ?V0 + 0,DPL
   \   00002B   8583..       MOV     ?V0 + 1,DPH
   \   00002E   78..         MOV     R0,#?V0 + 0
   \   000030   12....       LCALL   ?PUSH_XSTACK_I_TWO
   \   000033   7910         MOV     R1,#0x10
   \   000035   EE           MOV     A,R6
   \   000036   2410         ADD     A,#0x10
   \   000038   F582         MOV     DPL,A
   \   00003A   EF           MOV     A,R7
   \   00003B   12....       LCALL   ??Subroutine16_0 & 0xFFFF
   \                     ??CrossCallReturnLabel_27:
   \   00003E   12....       LCALL   ?Subroutine10 & 0xFFFF
   \                     ??CrossCallReturnLabel_12:
   \   000041   12....       LCALL   ?DEALLOC_XSTACK8
    273                  HalUARTWrite(0, "0x", 2);        
   \   000044                ; Setup parameters for call to function HalUARTWrite
   \   000044   7C02         MOV     R4,#0x2
   \   000046   7D00         MOV     R5,#0x0
   \   000048   7A..         MOV     R2,#`?<Constant "0x">` & 0xff
   \   00004A   7B..         MOV     R3,#(`?<Constant "0x">` >> 8) & 0xff
   \   00004C   12....       LCALL   ?Subroutine6 & 0xFFFF
    274                  HalUARTWrite(0, num, osal_strlen(num));
                                                          ^
Warning[Pe167]: argument of type "unsigned char *" is incompatible with
          parameter of type "char *"
    275                  
    276                  //输出网络短地址, 相当于IP地址
    277                  osal_memset(num, 0, sizeof num);        //初始化缓冲存储空间
   \                     ??CrossCallReturnLabel_3:
   \   00004F                ; Setup parameters for call to function osal_memset
   \   00004F   7C14         MOV     R4,#0x14
   \   000051   7D00         MOV     R5,#0x0
   \   000053   7900         MOV     R1,#0x0
   \   000055   85..82       MOV     DPL,?XSP + 0
   \   000058   85..83       MOV     DPH,?XSP + 1
   \   00005B   AA82         MOV     R2,DPL
   \   00005D   AB83         MOV     R3,DPH
   \   00005F   12....       LCALL   ??osal_memset?relay
    278                  _ltoa((uint16)(pkt->srcAddr.addr.shortAddr), num, 16);   //数字转字符串
   \   000062                ; Setup parameters for call to function _ltoa
   \   000062   85..82       MOV     DPL,?XSP + 0
   \   000065   8582..       MOV     ?V0 + 0,DPL
   \   000068   78..         MOV     R0,#?V0 + 0
   \   00006A   12....       LCALL   ?PUSH_XSTACK_I_TWO
   \   00006D   7910         MOV     R1,#0x10
   \   00006F   8E82         MOV     DPL,R6
   \   000071   8F83         MOV     DPH,R7
   \   000073   A3           INC     DPTR
   \   000074   A3           INC     DPTR
   \   000075   A3           INC     DPTR
   \   000076   A3           INC     DPTR
   \   000077   A3           INC     DPTR
   \   000078   A3           INC     DPTR
   \   000079   E0           MOVX    A,@DPTR
   \   00007A   12....       LCALL   ?Subroutine10 & 0xFFFF
   \                     ??CrossCallReturnLabel_13:
   \   00007D   12....       LCALL   ?DEALLOC_XSTACK8
    279                  HalUARTWrite(0, "->0x", 4);  
   \   000080                ; Setup parameters for call to function HalUARTWrite
   \   000080   7C04         MOV     R4,#0x4
   \   000082   7D00         MOV     R5,#0x0
   \   000084   7A..         MOV     R2,#`?<Constant "->0x">` & 0xff
   \   000086   7B..         MOV     R3,#(`?<Constant "->0x">` >> 8) & 0xff
   \   000088   12....       LCALL   ?Subroutine6 & 0xFFFF
    280                  HalUARTWrite(0, num, osal_strlen(num));                 //提示信息(消息来源端点号)
                                                          ^
Warning[Pe167]: argument of type "unsigned char *" is incompatible with
          parameter of type "char *"
    281                  HalUARTWrite(0, " : ", 3);                              //提示信息
   \                     ??CrossCallReturnLabel_4:
   \   00008B                ; Setup parameters for call to function HalUARTWrite
   \   00008B   7C03         MOV     R4,#0x3
   \   00008D   7D00         MOV     R5,#0x0
   \   00008F   7A..         MOV     R2,#`?<Constant " : ">` & 0xff
   \   000091   7B..         MOV     R3,#(`?<Constant " : ">` >> 8) & 0xff
   \   000093   7900         MOV     R1,#0x0
   \   000095   12....       LCALL   ??HalUARTWrite?relay
    282                  
    283                  uint8 IEEE64Addr[16];
    284                  IEEE64AddrToStr(pkt->cmd.Data, IEEE64Addr);
   \   000098   EE           MOV     A,R6
   \   000099   2421         ADD     A,#0x21
   \   00009B   F5..         MOV     ?V0 + 0,A
   \   00009D   EF           MOV     A,R7
   \   00009E   3400         ADDC    A,#0x0
   \   0000A0   F5..         MOV     ?V0 + 1,A
   \   0000A2                ; Setup parameters for call to function IEEE64AddrToStr
   \   0000A2   7414         MOV     A,#0x14
   \   0000A4   12....       LCALL   ?XSTACK_DISP0_8
   \   0000A7   AC82         MOV     R4,DPL
   \   0000A9   AD83         MOV     R5,DPH
   \   0000AB   85..82       MOV     DPL,?V0 + 0
   \   0000AE   85..83       MOV     DPH,?V0 + 1
   \   0000B1   12....       LCALL   ?Subroutine13 & 0xFFFF
   \                     ??CrossCallReturnLabel_24:
   \   0000B4   12....       LCALL   ??IEEE64AddrToStr?relay
    285                  HalUARTWrite(0, IEEE64Addr, 16);
   \   0000B7                ; Setup parameters for call to function HalUARTWrite
   \   0000B7   7C10         MOV     R4,#0x10
   \   0000B9   7D00         MOV     R5,#0x0
   \   0000BB   7414         MOV     A,#0x14
   \   0000BD   12....       LCALL   ?XSTACK_DISP0_8
   \   0000C0   AA82         MOV     R2,DPL
   \   0000C2   AB83         MOV     R3,DPH
   \   0000C4   7900         MOV     R1,#0x0
   \   0000C6   12....       LCALL   ??HalUARTWrite?relay
    286                  HalUARTWrite(0, pkt->cmd.Data, pkt->cmd.DataLength);    //输出接收到的数据
   \   0000C9                ; Setup parameters for call to function HalUARTWrite
   \   0000C9   EE           MOV     A,R6
   \   0000CA   241F         ADD     A,#0x1f
   \   0000CC   F582         MOV     DPL,A
   \   0000CE   EF           MOV     A,R7
   \   0000CF   12....       LCALL   ??Subroutine16_0 & 0xFFFF
   \                     ??CrossCallReturnLabel_28:
   \   0000D2   FC           MOV     R4,A
   \   0000D3   A3           INC     DPTR
   \   0000D4   E0           MOVX    A,@DPTR
   \   0000D5   FD           MOV     R5,A
   \   0000D6   85..82       MOV     DPL,?V0 + 0
   \   0000D9   85..83       MOV     DPH,?V0 + 1
   \   0000DC   12....       LCALL   ?Subroutine8 & 0xFFFF
    287                  
    288                  break;
    289          
    290            }
    291          }
   \                     ??CrossCallReturnLabel_11:
   \   0000DF   7424         MOV     A,#0x24
   \   0000E1   02....       LJMP    ?Subroutine1 & 0xFFFF

   \                                 In  segment BANKED_CODE, align 1, keep-with-next
   \                     ?Subroutine10:
   \   000000   F5..         MOV     ?V0 + 0,A
   \   000002   A3           INC     DPTR
   \   000003   E0           MOVX    A,@DPTR
   \   000004   AA..         MOV     R2,?V0 + 0
   \   000006   FB           MOV     R3,A
   \   000007   E4           CLR     A
   \   000008   FC           MOV     R4,A
   \   000009   FD           MOV     R5,A
   \   00000A   12....       LCALL   ??_ltoa?relay
   \   00000D   7402         MOV     A,#0x2
   \   00000F   22           RET
    292          
    293          /*********************************************************************
    294           * @fn      SampleApp_SendPeriodicMessage
    295           *
    296           * @brief   定时广播自身结点数据
    297           *
    298           * @param   无
    299           *
    300           * @return  无
    301           */

   \                                 In  segment BANKED_CODE, align 1, keep-with-next
    302          void SampleApp_SendPeriodicMessage(uint8 *data, uint16 len)
   \                     SampleApp_SendPeriodicMessage:
    303          {
   \   000000   74F6         MOV     A,#-0xa
   \   000002   12....       LCALL   ?BANKED_ENTER_XDATA
   \   000005                ; Saved register size: 10
   \   000005                ; Auto size: 0
    304            if ( AF_DataRequest( &SampleApp_Periodic_DstAddr, &SampleApp_epDesc,
    305                                 SAMPLEAPP_PERIODIC_CLUSTERID,
    306                                 len,
    307                                 data,
    308                                 &SampleApp_TransID,
    309                                 AF_DISCV_ROUTE,
    310                                 AF_DEFAULT_RADIUS ) == afStatus_SUCCESS )
   \   000005                ; Setup parameters for call to function AF_DataRequest
   \   000005   75..1E       MOV     ?V0 + 0,#0x1e
   \   000008   78..         MOV     R0,#?V0 + 0
   \   00000A   12....       LCALL   ?PUSH_XSTACK_I_ONE
   \   00000D   75....       MOV     ?V0 + 0,#SampleApp_TransID & 0xff
   \   000010   75....       MOV     ?V0 + 1,#(SampleApp_TransID >> 8) & 0xff
   \   000013   78..         MOV     R0,#?V0 + 0
   \   000015   12....       LCALL   ?PUSH_XSTACK_I_TWO
   \   000018   8A..         MOV     ?V0 + 0,R2
   \   00001A   8B..         MOV     ?V0 + 1,R3
   \   00001C   78..         MOV     R0,#?V0 + 0
   \   00001E   12....       LCALL   ?PUSH_XSTACK_I_TWO
   \   000021   8C..         MOV     ?V0 + 0,R4
   \   000023   8D..         MOV     ?V0 + 1,R5
   \   000025   78..         MOV     R0,#?V0 + 0
   \   000027   12....       LCALL   ?PUSH_XSTACK_I_TWO
   \   00002A   75..01       MOV     ?V0 + 0,#0x1
   \   00002D   75..00       MOV     ?V0 + 1,#0x0
   \   000030   78..         MOV     R0,#?V0 + 0
   \   000032   12....       LCALL   ?PUSH_XSTACK_I_TWO
   \   000035   7920         MOV     R1,#0x20
   \   000037   7C..         MOV     R4,#SampleApp_epDesc & 0xff
   \   000039   7D..         MOV     R5,#(SampleApp_epDesc >> 8) & 0xff
   \   00003B   7A..         MOV     R2,#SampleApp_Periodic_DstAddr & 0xff
   \   00003D   7B..         MOV     R3,#(SampleApp_Periodic_DstAddr >> 8) & 0xff
   \   00003F   12....       LCALL   ??AF_DataRequest?relay
   \   000042   7409         MOV     A,#0x9
   \   000044   12....       LCALL   ?DEALLOC_XSTACK8
   \   000047   E9           MOV     A,R1
   \   000048   6010         JZ      ??SampleApp_SendPeriodicMessage_0
    311            {
    312            }
    313            else
    314            {
    315                  //消息发送失败
    316                  HalUARTWrite(0, "Send message fail!\n", osal_strlen("Send message fail!\n"));
   \   00004A                ; Setup parameters for call to function HalUARTWrite
   \   00004A                ; Setup parameters for call to function osal_strlen
   \   00004A   7A..         MOV     R2,#`?<Constant "Send message fail!\\n">` & 0xff
   \   00004C   7B..         MOV     R3,#(`?<Constant "Send message fail!\\n">` >> 8) & 0xff
   \   00004E   12....       LCALL   ?Subroutine11 & 0xFFFF
    317            }
   \                     ??CrossCallReturnLabel_16:
   \   000051   7A..         MOV     R2,#`?<Constant "Send message fail!\\n">` & 0xff
   \   000053   7B..         MOV     R3,#(`?<Constant "Send message fail!\\n">` >> 8) & 0xff
   \   000055   7900         MOV     R1,#0x0
   \   000057   12....       LCALL   ??HalUARTWrite?relay
    318          }
   \                     ??SampleApp_SendPeriodicMessage_0:
   \   00005A   02....       LJMP    ??Subroutine15_0 & 0xFFFF

   \                                 In  segment XDATA_ID, align 1, keep-with-next
   \                     `?<Initializer for COMMANDS>`:
   \   000000   ....         DW `?<Constant "AT+RST\\r\\n">`
   \   000002   ....         DW `?<Constant "AT+CWMODE=3\\r\\n">`
   \   000004   ....         DW `?<Constant "AT+CIPMUX=0\\r\\n">`
   \   000006   ....         DW `?<Constant "AT+CIPMODE=0\\r\\n">`
   \   000008   ....         DW `?<Constant "AT+CWJAP=\\"P8MAX\\",\\"574...">`
   \   00000A   ....         DW `?<Constant "AT+CIPSTART=\\"UDP\\",\\"19...">`
   \   00000C   ....         DW `?<Constant "AT+CIPSEND">`
   \   00000E   ....         DW `?<Constant "AT+CIPCLOSE\\r\\n">`
   \   000010   ....         DW `?<Constant "AT+CIPSERVER\\r\\n">`
   \   000012   ....         DW `?<Constant "AT+CIPSTO\\r\\n">`
   \   000014   ....         DW `?<Constant "AT+CISTATUS\\r\\n">`
   \   000016   ....         DW `?<Constant "AT+CIFSR\\r\\n">`

   \                                 In  segment BANK_RELAYS, align 1
   \                     ??initGeoBuf?relay:
   \   000000   12....       LCALL   ?BDISPATCH
   \   000003   ......       DC24    initGeoBuf

   \                                 In  segment BANK_RELAYS, align 1
   \                     ??recGPSData?relay:
   \   000000   12....       LCALL   ?BDISPATCH
   \   000003   ......       DC24    recGPSData

   \                                 In  segment BANK_RELAYS, align 1
   \                     ??IEEE64AddrToStr?relay:
   \   000000   12....       LCALL   ?BDISPATCH
   \   000003   ......       DC24    IEEE64AddrToStr

   \                                 In  segment BANK_RELAYS, align 1
   \                     ??initESP?relay:
   \   000000   12....       LCALL   ?BDISPATCH
   \   000003   ......       DC24    initESP

   \                                 In  segment BANK_RELAYS, align 1
   \                     ??uploadData?relay:
   \   000000   12....       LCALL   ?BDISPATCH
   \   000003   ......       DC24    uploadData

   \                                 In  segment BANK_RELAYS, align 1
   \                     ??initLed?relay:
   \   000000   12....       LCALL   ?BDISPATCH
   \   000003   ......       DC24    initLed

   \                                 In  segment BANK_RELAYS, align 1
   \                     ??initUart?relay:
   \   000000   12....       LCALL   ?BDISPATCH
   \   000003   ......       DC24    initUart

   \                                 In  segment BANK_RELAYS, align 1
   \                     ??SampleApp_Init?relay:
   \   000000   12....       LCALL   ?BDISPATCH
   \   000003   ......       DC24    SampleApp_Init

   \                                 In  segment BANK_RELAYS, align 1
   \                     ??SampleApp_ProcessEvent?relay:
   \   000000   12....       LCALL   ?BDISPATCH
   \   000003   ......       DC24    SampleApp_ProcessEvent

   \                                 In  segment BANK_RELAYS, align 1
   \                     ??SampleApp_MessageMSGCB?relay:
   \   000000   12....       LCALL   ?BDISPATCH
   \   000003   ......       DC24    SampleApp_MessageMSGCB

   \                                 In  segment BANK_RELAYS, align 1
   \                     ??SampleApp_SendPeriodicMessage?relay:
   \   000000   12....       LCALL   ?BDISPATCH
   \   000003   ......       DC24    SampleApp_SendPeriodicMessage

   \                                 In  segment XDATA_ROM_C, align 1
   \                     `?<Constant "AT+RST\\r\\n">`:
   \   000000   41542B52     DB "AT+RST\015\012"
   \            53540D0A
   \            00      

   \                                 In  segment XDATA_ROM_C, align 1
   \                     `?<Constant "AT+CWMODE=3\\r\\n">`:
   \   000000   41542B43     DB "AT+CWMODE=3\015\012"
   \            574D4F44
   \            453D330D
   \            0A00    

   \                                 In  segment XDATA_ROM_C, align 1
   \                     `?<Constant "AT+CIPMUX=0\\r\\n">`:
   \   000000   41542B43     DB "AT+CIPMUX=0\015\012"
   \            49504D55
   \            583D300D
   \            0A00    

   \                                 In  segment XDATA_ROM_C, align 1
   \                     `?<Constant "AT+CIPMODE=0\\r\\n">`:
   \   000000   41542B43     DB "AT+CIPMODE=0\015\012"
   \            49504D4F
   \            44453D30
   \            0D0A00  

   \                                 In  segment XDATA_ROM_C, align 1
   \                     `?<Constant "AT+CWJAP=\\"P8MAX\\",\\"574...">`:
   \   000000   41542B43     DB "AT+CWJAP=\"P8MAX\",\"574288475\"\015\012"
   \            574A4150
   \            3D225038
   \            4D415822
   \            2C223537
   \            34323838
   \            34373522
   \            0D0A00  

   \                                 In  segment XDATA_ROM_C, align 1
   \                     `?<Constant "AT+CIPSTART=\\"UDP\\",\\"19...">`:
   \   000000   41542B43     DB "AT+CIPSTART=\"UDP\",\"192.168.43.224\",50000\015\012"
   \            49505354
   \            4152543D
   \            22554450
   \            222C2231
   \            39322E31
   \            36382E34
   \            332E3232
   \            34222C35
   \            30303030
   \            0D0A00  

   \                                 In  segment XDATA_ROM_C, align 1
   \                     `?<Constant "AT+CIPSEND">`:
   \   000000   41542B43     DB "AT+CIPSEND"
   \            49505345
   \            4E4400  

   \                                 In  segment XDATA_ROM_C, align 1
   \                     `?<Constant "AT+CIPCLOSE\\r\\n">`:
   \   000000   41542B43     DB "AT+CIPCLOSE\015\012"
   \            4950434C
   \            4F53450D
   \            0A00    

   \                                 In  segment XDATA_ROM_C, align 1
   \                     `?<Constant "AT+CIPSERVER\\r\\n">`:
   \   000000   41542B43     DB "AT+CIPSERVER\015\012"
   \            49505345
   \            52564552
   \            0D0A00  

   \                                 In  segment XDATA_ROM_C, align 1
   \                     `?<Constant "AT+CIPSTO\\r\\n">`:
   \   000000   41542B43     DB "AT+CIPSTO\015\012"
   \            49505354
   \            4F0D0A00

   \                                 In  segment XDATA_ROM_C, align 1
   \                     `?<Constant "AT+CISTATUS\\r\\n">`:
   \   000000   41542B43     DB "AT+CISTATUS\015\012"
   \            49535441
   \            5455530D
   \            0A00    

   \                                 In  segment XDATA_ROM_C, align 1
   \                     `?<Constant "AT+CIFSR\\r\\n">`:
   \   000000   41542B43     DB "AT+CIFSR\015\012"
   \            49465352
   \            0D0A00  

   \                                 In  segment XDATA_ROM_C, align 1
   \                     `?<Constant "$GPGGA">`:
   \   000000   24475047     DB "$GPGGA"
   \            474100  

   \                                 In  segment XDATA_ROM_C, align 1
   \                     `?<Constant "=">`:
   \   000000   3D00         DB "="

   \                                 In  segment XDATA_ROM_C, align 1
   \                     `?<Constant "\\r\\n">`:
   \   000000   0D0A00       DB "\015\012"

   \                                 In  segment XDATA_ROM_C, align 1
   \                     `?<Constant "Link Start!\\n">`:
   \   000000   4C696E6B     DB "Link Start!\012"
   \            20537461
   \            7274210A
   \            00      

   \                                 In  segment XDATA_ROM_C, align 1
   \                     `?<Constant "LocalHost : ">`:
   \   000000   4C6F6361     DB "LocalHost : "
   \            6C486F73
   \            74203A20
   \            00      

   \                                 In  segment XDATA_ROM_C, align 1
   \                     `?<Constant "0x">`:
   \   000000   307800       DB "0x"

   \                                 In  segment XDATA_ROM_C, align 1
   \                     `?<Constant "->0x">`:
   \   000000   2D3E3078     DB "->0x"
   \            00      

   \                                 In  segment XDATA_ROM_C, align 1
   \                     `?<Constant " : ">`:
   \   000000   203A2000     DB " : "

   \                                 In  segment XDATA_ROM_C, align 1
   \                     `?<Constant "Send message fail!\\n">`:
   \   000000   53656E64     DB "Send message fail!\012"
   \            206D6573
   \            73616765
   \            20666169
   \            6C210A00

   Maximum stack usage in bytes:

     Function                       ISTACK PSTACK XSTACK
     --------                       ------ ------ ------
     IEEE64AddrToStr                    0      0     62
       -> osal_memset                   0      0     28
       -> _ltoa                         0      0     32
     SampleApp_Init                     0      0      9
       -> initLed                       0      0     18
       -> initUart                      0      0     18
       -> initESP                       0      0     18
       -> afRegister                    0      0     18
       -> RegisterForKeys               0      0     18
     SampleApp_MessageMSGCB             0      0     48
       -> _ltoa                         0      0     96
       -> HalUARTWrite                  0      0     92
       -> osal_strlen                   0      0     92
       -> HalUARTWrite                  0      0     92
       -> osal_memset                   0      0     92
       -> _ltoa                         0      0     96
       -> HalUARTWrite                  0      0     92
       -> osal_strlen                   0      0     92
       -> HalUARTWrite                  0      0     92
       -> HalUARTWrite                  0      0     92
       -> IEEE64AddrToStr               0      0     92
       -> HalUARTWrite                  0      0     92
       -> HalUARTWrite                  0      0     92
     SampleApp_ProcessEvent             0      0    115
       -> osal_msg_receive              0      0    224
       -> osal_strlen                   0      0    224
       -> HalUARTWrite                  0      0    224
       -> HalLedSet                     0      0    224
       -> osal_start_timerEx            0      0    224
       -> osal_msg_deallocate           0      0    224
       -> osal_msg_receive              0      0    224
       -> uploadData                    0      0    224
       -> HalLedBlink                   0      0    224
       -> osal_memcpy                   0      0    230
       -> osal_memcpy                   0      0    230
       -> osal_mem_free                 0      0    224
       -> HalLedBlink                   0      0    224
       -> osal_strlen                   0      0    224
       -> HalUARTWrite                  0      0    224
       -> HalUARTWrite                  0      0    224
       -> SampleApp_SendPeriodicMessage
                                        0      0    224
       -> osal_start_timerEx            0      0    224
     SampleApp_SendPeriodicMessage      0      0    131
       -> AF_DataRequest                0      0     38
       -> osal_strlen                   0      0     20
       -> HalUARTWrite                  0      0     20
     initESP                            0      0     21
       -> osal_strlen                   0      0     24
       -> HalUARTWrite                  0      0     24
       -> osal_strlen                   0      0     24
       -> HalUARTWrite                  0      0     24
       -> HalLedSet                     0      0     24
     initGeoBuf                         2      0      0
       -> osal_mem_alloc                4      0      0
       -> osal_memset                   4      0      0
     initLed                            2      0      9
       -> HalLedInit                    4      0      0
       -> HalLedSet                     4      0      0
       -> HalLedSet                     4      0      0
       -> HalLedSet                     4      0      0
     initUart                           1      0     47
       -> HalUARTOpen                   0      0     76
     recGPSData                         1      0     11
       -> Hal_UART_RxBufLen             0      0     22
       -> HalUARTRead                   0      0     22
       -> osal_mem_alloc                0      0     22
       -> osal_memset                   0      0     22
     uploadData                         0      0    146
       -> _ltoa                         0      0     68
       -> osal_strlen                   0      0     64
       -> HalUARTWrite                  0      0     64
       -> HalUARTWrite                  0      0     64
       -> osal_strlen                   0      0     64
       -> HalUARTWrite                  0      0     64
       -> HalUARTWrite                  0      0     64
       -> HalUARTWrite                  0      0     64
       -> HalLedBlink                   0      0     64


   Segment part sizes:

     Function/Label                            Bytes
     --------------                            -----
     geoBuf                                      10
     initGeoBuf                                  32
     ?Subroutine0                                 7
     ?Subroutine4                                25
     recGPSData                                 237
     ?Subroutine1                                 3
     ??Subroutine15_0                             5
     ?Subroutine13                                6
     ?Subroutine12                                6
     ??Subroutine18_0                            10
     IEEE64AddrToStr                             90
     ?Subroutine5                                 4
     ??Subroutine16_0                             6
     COMMANDS                                    24
     initESP                                     79
     ??Subroutine17_0                             5
     ?Subroutine8                                 5
     ?Subroutine14                               10
     ?Subroutine7                                17
     uploadData                                 134
     ?Subroutine2                                 3
     ?Subroutine6                                38
     SampleApp_ClusterList                        2
     SampleApp_SimpleDesc                        12
     SampleApp_epDesc                             6
     SampleApp_TaskID                             1
     SampleApp_NwkState                           1
     SampleApp_TransID                            1
     SampleApp_Periodic_DstAddr                  12
     initLed                                     31
     initUart                                    95
     ?Subroutine3                                 5
     SampleApp_Init                             100
     SampleApp_ProcessEvent                     373
     ?Subroutine9                                 3
     ?Subroutine11                                8
     SampleApp_MessageMSGCB                     228
     ?Subroutine10                               16
     SampleApp_SendPeriodicMessage               93
     ?<Initializer for COMMANDS>                 24
     ??initGeoBuf?relay                           6
     ??recGPSData?relay                           6
     ??IEEE64AddrToStr?relay                      6
     ??initESP?relay                              6
     ??uploadData?relay                           6
     ??initLed?relay                              6
     ??initUart?relay                             6
     ??SampleApp_Init?relay                       6
     ??SampleApp_ProcessEvent?relay               6
     ??SampleApp_MessageMSGCB?relay               6
     ??SampleApp_SendPeriodicMessage?relay        6
     ?<Constant "AT+RST\r\n">                     9
     ?<Constant "AT+CWMODE=3\r\n">               14
     ?<Constant "AT+CIPMUX=0\r\n">               14
     ?<Constant "AT+CIPMODE=0\r\n">              15
     ?<Constant "AT+CWJAP=\"P8MAX\",\"574...">   31
     ?<Constant "AT+CIPSTART=\"UDP\",\"19...">   43
     ?<Constant "AT+CIPSEND">                    11
     ?<Constant "AT+CIPCLOSE\r\n">               14
     ?<Constant "AT+CIPSERVER\r\n">              15
     ?<Constant "AT+CIPSTO\r\n">                 12
     ?<Constant "AT+CISTATUS\r\n">               14
     ?<Constant "AT+CIFSR\r\n">                  11
     ?<Constant "$GPGGA">                         7
     ?<Constant "=">                              2
     ?<Constant "\r\n">                           3
     ?<Constant "Link Start!\n">                 13
     ?<Constant "LocalHost : ">                  13
     ?<Constant "0x">                             3
     ?<Constant "->0x">                           5
     ?<Constant " : ">                            4
     ?<Constant "Send message fail!\n">          20

 
 1 674 bytes in segment BANKED_CODE
    66 bytes in segment BANK_RELAYS
    24 bytes in segment XDATA_I
    24 bytes in segment XDATA_ID
   287 bytes in segment XDATA_ROM_C
    31 bytes in segment XDATA_Z
 
 1 764 bytes of CODE  memory
   287 bytes of CONST memory
    55 bytes of XDATA memory

Errors: none
Warnings: 6
